; generated by Component: ARM Compiler 5.06 update 6 (build 750) Tool: ArmCC [4d3637]
; commandline ArmCC [--c99 --list --split_sections --debug -c --asm --interleave -o.\stm32f4xx-nucleo-iks01a2\objects\iks01a2_motion_sensors_ex.o --asm_dir=.\STM32F4xx-Nucleo-IKS01A2\Listings\ --list_dir=.\STM32F4xx-Nucleo-IKS01A2\Listings\ --depend=.\stm32f4xx-nucleo-iks01a2\objects\iks01a2_motion_sensors_ex.d --cpu=Cortex-M4.fp --apcs=interwork -O0 --diag_suppress=9931 -I..\Inc -I..\..\..\..\..\..\Drivers\CMSIS\Device\ST\STM32F4xx\Include -I..\..\..\..\..\..\Drivers\STM32F4xx_HAL_Driver\Inc -I..\..\..\..\..\..\Drivers\BSP\STM32F4xx-Nucleo -I..\..\..\..\..\..\Drivers\BSP\Components\Common -I..\..\..\..\..\..\Drivers\CMSIS\Include -I..\..\..\..\..\..\Drivers\BSP\Components\hts221 -I..\..\..\..\..\..\Drivers\BSP\Components\lps22hb -I..\..\..\..\..\..\Drivers\BSP\Components\lsm6dsl -I..\..\..\..\..\..\Drivers\BSP\Components\lsm303agr -I..\..\..\..\..\..\Drivers\BSP\IKS01A2 -I..\..\..\..\..\..\Middlewares\ST\STM32_MotionEC_Library\Inc -I..\..\..\..\..\..\Middlewares\ST\STM32_MotionMC_Library\Inc -I.\LSM9DS1 -I.\LSM9DS1 -I.\RTE\_STM32F4xx-Nucleo-IKS01A2 -IC:\Keil_v5\ARM\PACK\Keil\STM32F4xx_DFP\2.13.0\Drivers\CMSIS\Device\ST\STM32F4xx\Include -IC:\Keil_v5\ARM\CMSIS\Include -D__MICROLIB -D__UVISION_VERSION=526 -DSTM32F401xE -DSTM32F401xE -DUSE_HAL_DRIVER -DUSE_STM32F4XX_NUCLEO -DUSE_IKS01A2 ..\..\..\..\..\..\Drivers\BSP\IKS01A2\iks01a2_motion_sensors_ex.c]
                          THUMB

                          AREA ||i.IKS01A2_MOTION_SENSOR_Clear_DRDY||, CODE, READONLY, ALIGN=1

                  IKS01A2_MOTION_SENSOR_Clear_DRDY PROC
;;;297     */
;;;298    int32_t IKS01A2_MOTION_SENSOR_Clear_DRDY(uint32_t Instance)
000000  4601              MOV      r1,r0
;;;299    {
;;;300      int32_t ret;
;;;301    
;;;302      switch (Instance)
000002  b121              CBZ      r1,|L1.14|
000004  2901              CMP      r1,#1
000006  d005              BEQ      |L1.20|
000008  2902              CMP      r1,#2
00000a  d109              BNE      |L1.32|
00000c  e005              B        |L1.26|
                  |L1.14|
;;;303      {
;;;304    #if (USE_IKS01A2_MOTION_SENSOR_LSM6DSL_0 == 1)
;;;305        case IKS01A2_LSM6DSL_0:
;;;306          ret = BSP_ERROR_COMPONENT_FAILURE;
00000e  f06f0004          MVN      r0,#4
;;;307          break;
000012  e008              B        |L1.38|
                  |L1.20|
;;;308    #endif
;;;309    
;;;310    #if (USE_IKS01A2_MOTION_SENSOR_ISM330DLC_0 == 1)
;;;311        ISM330DLC_Axes_t TempAcceleration;
;;;312    
;;;313        case IKS01A2_ISM330DLC_0:
;;;314    
;;;315          if (ISM330DLC_ACC_GetAxes(MotionCompObj[Instance], &TempAcceleration) != BSP_ERROR_NONE)
;;;316          {
;;;317            ret = BSP_ERROR_COMPONENT_FAILURE;
;;;318          }
;;;319          else
;;;320          {
;;;321            ret = BSP_ERROR_NONE;
;;;322          }
;;;323          break;
;;;324    #endif
;;;325    
;;;326    #if (USE_IKS01A2_MOTION_SENSOR_LSM303AGR_ACC_0 == 1)
;;;327        case IKS01A2_LSM303AGR_ACC_0:
;;;328          ret = BSP_ERROR_COMPONENT_FAILURE;
000014  f06f0004          MVN      r0,#4
;;;329          break;
000018  e005              B        |L1.38|
                  |L1.26|
;;;330    #endif
;;;331    
;;;332    #if (USE_IKS01A2_MOTION_SENSOR_LSM303AGR_MAG_0 == 1)
;;;333        case IKS01A2_LSM303AGR_MAG_0:
;;;334          ret = BSP_ERROR_COMPONENT_FAILURE;
00001a  f06f0004          MVN      r0,#4
;;;335          break;
00001e  e002              B        |L1.38|
                  |L1.32|
;;;336    #endif
;;;337    
;;;338        default:
;;;339          ret = BSP_ERROR_WRONG_PARAM;
000020  f06f0001          MVN      r0,#1
;;;340          break;
000024  bf00              NOP      
                  |L1.38|
000026  bf00              NOP                            ;307
;;;341      }
;;;342    
;;;343      return ret;
;;;344    }
000028  4770              BX       lr
;;;345    
                          ENDP


                          AREA ||i.IKS01A2_MOTION_SENSOR_DRDY_Set_Mode||, CODE, READONLY, ALIGN=2

                  IKS01A2_MOTION_SENSOR_DRDY_Set_Mode PROC
;;;240     */
;;;241    int32_t IKS01A2_MOTION_SENSOR_DRDY_Set_Mode(uint32_t Instance, uint8_t Status)
000000  b570              PUSH     {r4-r6,lr}
;;;242    {
000002  4605              MOV      r5,r0
000004  460e              MOV      r6,r1
;;;243      int32_t ret;
;;;244    
;;;245      switch (Instance)
000006  b125              CBZ      r5,|L2.18|
000008  2d01              CMP      r5,#1
00000a  d00e              BEQ      |L2.42|
00000c  2d02              CMP      r5,#2
00000e  d112              BNE      |L2.54|
000010  e00e              B        |L2.48|
                  |L2.18|
;;;246      {
;;;247    #if (USE_IKS01A2_MOTION_SENSOR_LSM6DSL_0 == 1)
;;;248        case IKS01A2_LSM6DSL_0:
;;;249          if (LSM6DSL_Set_DRDY_Mode(MotionCompObj[Instance], Status) != BSP_ERROR_NONE)
000012  490c              LDR      r1,|L2.68|
000014  f8510025          LDR      r0,[r1,r5,LSL #2]
000018  4631              MOV      r1,r6
00001a  f7fffffe          BL       LSM6DSL_Set_DRDY_Mode
00001e  b110              CBZ      r0,|L2.38|
;;;250          {
;;;251            ret = BSP_ERROR_COMPONENT_FAILURE;
000020  f06f0404          MVN      r4,#4
000024  e000              B        |L2.40|
                  |L2.38|
;;;252          }
;;;253          else
;;;254          {
;;;255            ret = BSP_ERROR_NONE;
000026  2400              MOVS     r4,#0
                  |L2.40|
;;;256          }
;;;257          break;
000028  e008              B        |L2.60|
                  |L2.42|
;;;258    #endif
;;;259    
;;;260    #if (USE_IKS01A2_MOTION_SENSOR_ISM330DLC_0 == 1)
;;;261        case IKS01A2_ISM330DLC_0:
;;;262          if (ISM330DLC_Set_Drdy_Mode(MotionCompObj[Instance], Status) != BSP_ERROR_NONE)
;;;263          {
;;;264            ret = BSP_ERROR_COMPONENT_FAILURE;
;;;265          }
;;;266          else
;;;267          {
;;;268            ret = BSP_ERROR_NONE;
;;;269          }
;;;270          break;
;;;271    #endif
;;;272    
;;;273    #if (USE_IKS01A2_MOTION_SENSOR_LSM303AGR_ACC_0 == 1)
;;;274        case IKS01A2_LSM303AGR_ACC_0:
;;;275          ret = BSP_ERROR_COMPONENT_FAILURE;
00002a  f06f0404          MVN      r4,#4
;;;276          break;
00002e  e005              B        |L2.60|
                  |L2.48|
;;;277    #endif
;;;278    
;;;279    #if (USE_IKS01A2_MOTION_SENSOR_LSM303AGR_MAG_0 == 1)
;;;280        case IKS01A2_LSM303AGR_MAG_0:
;;;281          ret = BSP_ERROR_COMPONENT_FAILURE;
000030  f06f0404          MVN      r4,#4
;;;282          break;
000034  e002              B        |L2.60|
                  |L2.54|
;;;283    #endif
;;;284    
;;;285        default:
;;;286          ret = BSP_ERROR_WRONG_PARAM;
000036  f06f0401          MVN      r4,#1
;;;287          break;
00003a  bf00              NOP      
                  |L2.60|
00003c  bf00              NOP                            ;257
;;;288      }
;;;289    
;;;290      return ret;
00003e  4620              MOV      r0,r4
;;;291    }
000040  bd70              POP      {r4-r6,pc}
;;;292    
                          ENDP

000042  0000              DCW      0x0000
                  |L2.68|
                          DCD      MotionCompObj

                          AREA ||i.IKS01A2_MOTION_SENSOR_Disable_6D_Orientation||, CODE, READONLY, ALIGN=2

                  IKS01A2_MOTION_SENSOR_Disable_6D_Orientation PROC
;;;409     */
;;;410    int32_t IKS01A2_MOTION_SENSOR_Disable_6D_Orientation(uint32_t Instance)
000000  b570              PUSH     {r4-r6,lr}
;;;411    {
000002  4605              MOV      r5,r0
;;;412      int32_t ret;
;;;413    
;;;414      switch (Instance)
000004  b125              CBZ      r5,|L3.16|
000006  2d01              CMP      r5,#1
000008  d00d              BEQ      |L3.38|
00000a  2d02              CMP      r5,#2
00000c  d111              BNE      |L3.50|
00000e  e00d              B        |L3.44|
                  |L3.16|
;;;415      {
;;;416    #if (USE_IKS01A2_MOTION_SENSOR_LSM6DSL_0 == 1)
;;;417        case IKS01A2_LSM6DSL_0:
;;;418          if (LSM6DSL_ACC_Disable_6D_Orientation(MotionCompObj[Instance]) != BSP_ERROR_NONE)
000010  490b              LDR      r1,|L3.64|
000012  f8510025          LDR      r0,[r1,r5,LSL #2]
000016  f7fffffe          BL       LSM6DSL_ACC_Disable_6D_Orientation
00001a  b110              CBZ      r0,|L3.34|
;;;419          {
;;;420            ret = BSP_ERROR_COMPONENT_FAILURE;
00001c  f06f0404          MVN      r4,#4
000020  e000              B        |L3.36|
                  |L3.34|
;;;421          }
;;;422          else
;;;423          {
;;;424            ret = BSP_ERROR_NONE;
000022  2400              MOVS     r4,#0
                  |L3.36|
;;;425          }
;;;426          break;
000024  e008              B        |L3.56|
                  |L3.38|
;;;427    #endif
;;;428    
;;;429    #if (USE_IKS01A2_MOTION_SENSOR_LSM303AGR_ACC_0 == 1)
;;;430        case IKS01A2_LSM303AGR_ACC_0:
;;;431          ret = BSP_ERROR_COMPONENT_FAILURE;
000026  f06f0404          MVN      r4,#4
;;;432          break;
00002a  e005              B        |L3.56|
                  |L3.44|
;;;433    #endif
;;;434    
;;;435    #if (USE_IKS01A2_MOTION_SENSOR_LSM303AGR_MAG_0 == 1)
;;;436        case IKS01A2_LSM303AGR_MAG_0:
;;;437          ret = BSP_ERROR_COMPONENT_FAILURE;
00002c  f06f0404          MVN      r4,#4
;;;438          break;
000030  e002              B        |L3.56|
                  |L3.50|
;;;439    #endif
;;;440    
;;;441    #if (USE_IKS01A2_MOTION_SENSOR_ISM330DLC_0 == 1)
;;;442        case IKS01A2_ISM330DLC_0:
;;;443          if (ISM330DLC_ACC_Disable_6D_Orientation(MotionCompObj[Instance]) != BSP_ERROR_NONE)
;;;444          {
;;;445            ret = BSP_ERROR_COMPONENT_FAILURE;
;;;446          }
;;;447          else
;;;448          {
;;;449            ret = BSP_ERROR_NONE;
;;;450          }
;;;451          break;
;;;452    #endif
;;;453    
;;;454        default:
;;;455          ret = BSP_ERROR_WRONG_PARAM;
000032  f06f0401          MVN      r4,#1
;;;456          break;
000036  bf00              NOP      
                  |L3.56|
000038  bf00              NOP                            ;426
;;;457      }
;;;458    
;;;459      return ret;
00003a  4620              MOV      r0,r4
;;;460    }
00003c  bd70              POP      {r4-r6,pc}
;;;461    
                          ENDP

00003e  0000              DCW      0x0000
                  |L3.64|
                          DCD      MotionCompObj

                          AREA ||i.IKS01A2_MOTION_SENSOR_Disable_Double_Tap_Detection||, CODE, READONLY, ALIGN=2

                  IKS01A2_MOTION_SENSOR_Disable_Double_Tap_Detection PROC
;;;1110    */
;;;1111   int32_t IKS01A2_MOTION_SENSOR_Disable_Double_Tap_Detection(uint32_t Instance)
000000  b570              PUSH     {r4-r6,lr}
;;;1112   {
000002  4605              MOV      r5,r0
;;;1113     int32_t ret;
;;;1114   
;;;1115     switch (Instance)
000004  b125              CBZ      r5,|L4.16|
000006  2d01              CMP      r5,#1
000008  d00d              BEQ      |L4.38|
00000a  2d02              CMP      r5,#2
00000c  d111              BNE      |L4.50|
00000e  e00d              B        |L4.44|
                  |L4.16|
;;;1116     {
;;;1117   #if (USE_IKS01A2_MOTION_SENSOR_LSM6DSL_0 == 1)
;;;1118       case IKS01A2_LSM6DSL_0:
;;;1119         if (LSM6DSL_ACC_Disable_Double_Tap_Detection(MotionCompObj[Instance]) != BSP_ERROR_NONE)
000010  490b              LDR      r1,|L4.64|
000012  f8510025          LDR      r0,[r1,r5,LSL #2]
000016  f7fffffe          BL       LSM6DSL_ACC_Disable_Double_Tap_Detection
00001a  b110              CBZ      r0,|L4.34|
;;;1120         {
;;;1121           ret = BSP_ERROR_COMPONENT_FAILURE;
00001c  f06f0404          MVN      r4,#4
000020  e000              B        |L4.36|
                  |L4.34|
;;;1122         }
;;;1123         else
;;;1124         {
;;;1125           ret = BSP_ERROR_NONE;
000022  2400              MOVS     r4,#0
                  |L4.36|
;;;1126         }
;;;1127         break;
000024  e008              B        |L4.56|
                  |L4.38|
;;;1128   #endif
;;;1129   
;;;1130   #if (USE_IKS01A2_MOTION_SENSOR_LSM303AGR_ACC_0 == 1)
;;;1131       case IKS01A2_LSM303AGR_ACC_0:
;;;1132         ret = BSP_ERROR_COMPONENT_FAILURE;
000026  f06f0404          MVN      r4,#4
;;;1133         break;
00002a  e005              B        |L4.56|
                  |L4.44|
;;;1134   #endif
;;;1135   
;;;1136   #if (USE_IKS01A2_MOTION_SENSOR_LSM303AGR_MAG_0 == 1)
;;;1137       case IKS01A2_LSM303AGR_MAG_0:
;;;1138         ret = BSP_ERROR_COMPONENT_FAILURE;
00002c  f06f0404          MVN      r4,#4
;;;1139         break;
000030  e002              B        |L4.56|
                  |L4.50|
;;;1140   #endif
;;;1141   
;;;1142   #if (USE_IKS01A2_MOTION_SENSOR_ISM330DLC_0 == 1)
;;;1143       case IKS01A2_ISM330DLC_0:
;;;1144         if (ISM330DLC_ACC_Disable_Double_Tap_Detection(MotionCompObj[Instance]) != BSP_ERROR_NONE)
;;;1145         {
;;;1146           ret = BSP_ERROR_COMPONENT_FAILURE;
;;;1147         }
;;;1148         else
;;;1149         {
;;;1150           ret = BSP_ERROR_NONE;
;;;1151         }
;;;1152         break;
;;;1153   #endif
;;;1154   
;;;1155       default:
;;;1156         ret = BSP_ERROR_WRONG_PARAM;
000032  f06f0401          MVN      r4,#1
;;;1157         break;
000036  bf00              NOP      
                  |L4.56|
000038  bf00              NOP                            ;1127
;;;1158     }
;;;1159   
;;;1160     return ret;
00003a  4620              MOV      r0,r4
;;;1161   }
00003c  bd70              POP      {r4-r6,pc}
;;;1162   
                          ENDP

00003e  0000              DCW      0x0000
                  |L4.64|
                          DCD      MotionCompObj

                          AREA ||i.IKS01A2_MOTION_SENSOR_Disable_Free_Fall_Detection||, CODE, READONLY, ALIGN=2

                  IKS01A2_MOTION_SENSOR_Disable_Free_Fall_Detection PROC
;;;583     */
;;;584    int32_t IKS01A2_MOTION_SENSOR_Disable_Free_Fall_Detection(uint32_t Instance)
000000  b570              PUSH     {r4-r6,lr}
;;;585    {
000002  4605              MOV      r5,r0
;;;586      int32_t ret;
;;;587    
;;;588      switch (Instance)
000004  b125              CBZ      r5,|L5.16|
000006  2d01              CMP      r5,#1
000008  d00d              BEQ      |L5.38|
00000a  2d02              CMP      r5,#2
00000c  d111              BNE      |L5.50|
00000e  e00d              B        |L5.44|
                  |L5.16|
;;;589      {
;;;590    #if (USE_IKS01A2_MOTION_SENSOR_LSM6DSL_0 == 1)
;;;591        case IKS01A2_LSM6DSL_0:
;;;592          if (LSM6DSL_ACC_Disable_Free_Fall_Detection(MotionCompObj[Instance]) != BSP_ERROR_NONE)
000010  490b              LDR      r1,|L5.64|
000012  f8510025          LDR      r0,[r1,r5,LSL #2]
000016  f7fffffe          BL       LSM6DSL_ACC_Disable_Free_Fall_Detection
00001a  b110              CBZ      r0,|L5.34|
;;;593          {
;;;594            ret = BSP_ERROR_COMPONENT_FAILURE;
00001c  f06f0404          MVN      r4,#4
000020  e000              B        |L5.36|
                  |L5.34|
;;;595          }
;;;596          else
;;;597          {
;;;598            ret = BSP_ERROR_NONE;
000022  2400              MOVS     r4,#0
                  |L5.36|
;;;599          }
;;;600          break;
000024  e008              B        |L5.56|
                  |L5.38|
;;;601    #endif
;;;602    
;;;603    #if (USE_IKS01A2_MOTION_SENSOR_LSM303AGR_ACC_0 == 1)
;;;604        case IKS01A2_LSM303AGR_ACC_0:
;;;605          ret = BSP_ERROR_COMPONENT_FAILURE;
000026  f06f0404          MVN      r4,#4
;;;606          break;
00002a  e005              B        |L5.56|
                  |L5.44|
;;;607    #endif
;;;608    
;;;609    #if (USE_IKS01A2_MOTION_SENSOR_LSM303AGR_MAG_0 == 1)
;;;610        case IKS01A2_LSM303AGR_MAG_0:
;;;611          ret = BSP_ERROR_COMPONENT_FAILURE;
00002c  f06f0404          MVN      r4,#4
;;;612          break;
000030  e002              B        |L5.56|
                  |L5.50|
;;;613    #endif
;;;614    
;;;615    #if (USE_IKS01A2_MOTION_SENSOR_ISM330DLC_0 == 1)
;;;616        case IKS01A2_ISM330DLC_0:
;;;617          if (ISM330DLC_ACC_Disable_Free_Fall_Detection(MotionCompObj[Instance]) != BSP_ERROR_NONE)
;;;618          {
;;;619            ret = BSP_ERROR_COMPONENT_FAILURE;
;;;620          }
;;;621          else
;;;622          {
;;;623            ret = BSP_ERROR_NONE;
;;;624          }
;;;625          break;
;;;626    #endif
;;;627    
;;;628        default:
;;;629          ret = BSP_ERROR_WRONG_PARAM;
000032  f06f0401          MVN      r4,#1
;;;630          break;
000036  bf00              NOP      
                  |L5.56|
000038  bf00              NOP                            ;600
;;;631      }
;;;632    
;;;633      return ret;
00003a  4620              MOV      r0,r4
;;;634    }
00003c  bd70              POP      {r4-r6,pc}
;;;635    
                          ENDP

00003e  0000              DCW      0x0000
                  |L5.64|
                          DCD      MotionCompObj

                          AREA ||i.IKS01A2_MOTION_SENSOR_Disable_Inactivity_Detection||, CODE, READONLY, ALIGN=2

                  IKS01A2_MOTION_SENSOR_Disable_Inactivity_Detection PROC
;;;1792    */
;;;1793   int32_t IKS01A2_MOTION_SENSOR_Disable_Inactivity_Detection(uint32_t Instance)
000000  b570              PUSH     {r4-r6,lr}
;;;1794   {
000002  4605              MOV      r5,r0
;;;1795     int32_t ret;
;;;1796   
;;;1797     switch (Instance)
000004  b125              CBZ      r5,|L6.16|
000006  2d01              CMP      r5,#1
000008  d00d              BEQ      |L6.38|
00000a  2d02              CMP      r5,#2
00000c  d111              BNE      |L6.50|
00000e  e00d              B        |L6.44|
                  |L6.16|
;;;1798     {
;;;1799   #if (USE_IKS01A2_MOTION_SENSOR_LSM6DSL_0 == 1)
;;;1800       case IKS01A2_LSM6DSL_0:
;;;1801         if (LSM6DSL_ACC_Disable_Inactivity_Detection(MotionCompObj[Instance]) != BSP_ERROR_NONE)
000010  490b              LDR      r1,|L6.64|
000012  f8510025          LDR      r0,[r1,r5,LSL #2]
000016  f7fffffe          BL       LSM6DSL_ACC_Disable_Inactivity_Detection
00001a  b110              CBZ      r0,|L6.34|
;;;1802         {
;;;1803           ret = BSP_ERROR_COMPONENT_FAILURE;
00001c  f06f0404          MVN      r4,#4
000020  e000              B        |L6.36|
                  |L6.34|
;;;1804         }
;;;1805         else
;;;1806         {
;;;1807           ret = BSP_ERROR_NONE;
000022  2400              MOVS     r4,#0
                  |L6.36|
;;;1808         }
;;;1809         break;
000024  e008              B        |L6.56|
                  |L6.38|
;;;1810   #endif
;;;1811   
;;;1812   #if (USE_IKS01A2_MOTION_SENSOR_LSM303AGR_ACC_0 == 1)
;;;1813       case IKS01A2_LSM303AGR_ACC_0:
;;;1814         ret = BSP_ERROR_COMPONENT_FAILURE;
000026  f06f0404          MVN      r4,#4
;;;1815         break;
00002a  e005              B        |L6.56|
                  |L6.44|
;;;1816   #endif
;;;1817   
;;;1818   #if (USE_IKS01A2_MOTION_SENSOR_LSM303AGR_MAG_0 == 1)
;;;1819       case IKS01A2_LSM303AGR_MAG_0:
;;;1820         ret = BSP_ERROR_COMPONENT_FAILURE;
00002c  f06f0404          MVN      r4,#4
;;;1821         break;
000030  e002              B        |L6.56|
                  |L6.50|
;;;1822   #endif
;;;1823   
;;;1824       default:
;;;1825         ret = BSP_ERROR_WRONG_PARAM;
000032  f06f0401          MVN      r4,#1
;;;1826         break;
000036  bf00              NOP      
                  |L6.56|
000038  bf00              NOP                            ;1809
;;;1827     }
;;;1828   
;;;1829     return ret;
00003a  4620              MOV      r0,r4
;;;1830   }
00003c  bd70              POP      {r4-r6,pc}
;;;1831   
                          ENDP

00003e  0000              DCW      0x0000
                  |L6.64|
                          DCD      MotionCompObj

                          AREA ||i.IKS01A2_MOTION_SENSOR_Disable_Pedometer||, CODE, READONLY, ALIGN=2

                  IKS01A2_MOTION_SENSOR_Disable_Pedometer PROC
;;;801     */
;;;802    int32_t IKS01A2_MOTION_SENSOR_Disable_Pedometer(uint32_t Instance)
000000  b570              PUSH     {r4-r6,lr}
;;;803    {
000002  4605              MOV      r5,r0
;;;804      int32_t ret;
;;;805    
;;;806      switch (Instance)
000004  b125              CBZ      r5,|L7.16|
000006  2d01              CMP      r5,#1
000008  d00d              BEQ      |L7.38|
00000a  2d02              CMP      r5,#2
00000c  d111              BNE      |L7.50|
00000e  e00d              B        |L7.44|
                  |L7.16|
;;;807      {
;;;808    #if (USE_IKS01A2_MOTION_SENSOR_LSM6DSL_0 == 1)
;;;809        case IKS01A2_LSM6DSL_0:
;;;810          if (LSM6DSL_ACC_Disable_Pedometer(MotionCompObj[Instance]) != BSP_ERROR_NONE)
000010  490b              LDR      r1,|L7.64|
000012  f8510025          LDR      r0,[r1,r5,LSL #2]
000016  f7fffffe          BL       LSM6DSL_ACC_Disable_Pedometer
00001a  b110              CBZ      r0,|L7.34|
;;;811          {
;;;812            ret = BSP_ERROR_COMPONENT_FAILURE;
00001c  f06f0404          MVN      r4,#4
000020  e000              B        |L7.36|
                  |L7.34|
;;;813          }
;;;814          else
;;;815          {
;;;816            ret = BSP_ERROR_NONE;
000022  2400              MOVS     r4,#0
                  |L7.36|
;;;817          }
;;;818          break;
000024  e008              B        |L7.56|
                  |L7.38|
;;;819    #endif
;;;820    
;;;821    #if (USE_IKS01A2_MOTION_SENSOR_LSM303AGR_ACC_0 == 1)
;;;822        case IKS01A2_LSM303AGR_ACC_0:
;;;823          ret = BSP_ERROR_COMPONENT_FAILURE;
000026  f06f0404          MVN      r4,#4
;;;824          break;
00002a  e005              B        |L7.56|
                  |L7.44|
;;;825    #endif
;;;826    
;;;827    #if (USE_IKS01A2_MOTION_SENSOR_LSM303AGR_MAG_0 == 1)
;;;828        case IKS01A2_LSM303AGR_MAG_0:
;;;829          ret = BSP_ERROR_COMPONENT_FAILURE;
00002c  f06f0404          MVN      r4,#4
;;;830          break;
000030  e002              B        |L7.56|
                  |L7.50|
;;;831    #endif
;;;832    
;;;833        default:
;;;834          ret = BSP_ERROR_WRONG_PARAM;
000032  f06f0401          MVN      r4,#1
;;;835          break;
000036  bf00              NOP      
                  |L7.56|
000038  bf00              NOP                            ;818
;;;836      }
;;;837    
;;;838      return ret;
00003a  4620              MOV      r0,r4
;;;839    }
00003c  bd70              POP      {r4-r6,pc}
;;;840    
                          ENDP

00003e  0000              DCW      0x0000
                  |L7.64|
                          DCD      MotionCompObj

                          AREA ||i.IKS01A2_MOTION_SENSOR_Disable_Single_Tap_Detection||, CODE, READONLY, ALIGN=2

                  IKS01A2_MOTION_SENSOR_Disable_Single_Tap_Detection PROC
;;;994     */
;;;995    int32_t IKS01A2_MOTION_SENSOR_Disable_Single_Tap_Detection(uint32_t Instance)
000000  b570              PUSH     {r4-r6,lr}
;;;996    {
000002  4605              MOV      r5,r0
;;;997      int32_t ret;
;;;998    
;;;999      switch (Instance)
000004  b125              CBZ      r5,|L8.16|
000006  2d01              CMP      r5,#1
000008  d00d              BEQ      |L8.38|
00000a  2d02              CMP      r5,#2
00000c  d111              BNE      |L8.50|
00000e  e00d              B        |L8.44|
                  |L8.16|
;;;1000     {
;;;1001   #if (USE_IKS01A2_MOTION_SENSOR_LSM6DSL_0 == 1)
;;;1002       case IKS01A2_LSM6DSL_0:
;;;1003         if (LSM6DSL_ACC_Disable_Single_Tap_Detection(MotionCompObj[Instance]) != BSP_ERROR_NONE)
000010  490b              LDR      r1,|L8.64|
000012  f8510025          LDR      r0,[r1,r5,LSL #2]
000016  f7fffffe          BL       LSM6DSL_ACC_Disable_Single_Tap_Detection
00001a  b110              CBZ      r0,|L8.34|
;;;1004         {
;;;1005           ret = BSP_ERROR_COMPONENT_FAILURE;
00001c  f06f0404          MVN      r4,#4
000020  e000              B        |L8.36|
                  |L8.34|
;;;1006         }
;;;1007         else
;;;1008         {
;;;1009           ret = BSP_ERROR_NONE;
000022  2400              MOVS     r4,#0
                  |L8.36|
;;;1010         }
;;;1011         break;
000024  e008              B        |L8.56|
                  |L8.38|
;;;1012   #endif
;;;1013   
;;;1014   #if (USE_IKS01A2_MOTION_SENSOR_LSM303AGR_ACC_0 == 1)
;;;1015       case IKS01A2_LSM303AGR_ACC_0:
;;;1016         ret = BSP_ERROR_COMPONENT_FAILURE;
000026  f06f0404          MVN      r4,#4
;;;1017         break;
00002a  e005              B        |L8.56|
                  |L8.44|
;;;1018   #endif
;;;1019   
;;;1020   #if (USE_IKS01A2_MOTION_SENSOR_LSM303AGR_MAG_0 == 1)
;;;1021       case IKS01A2_LSM303AGR_MAG_0:
;;;1022         ret = BSP_ERROR_COMPONENT_FAILURE;
00002c  f06f0404          MVN      r4,#4
;;;1023         break;
000030  e002              B        |L8.56|
                  |L8.50|
;;;1024   #endif
;;;1025   
;;;1026   #if (USE_IKS01A2_MOTION_SENSOR_ISM330DLC_0 == 1)
;;;1027       case IKS01A2_ISM330DLC_0:
;;;1028         if (ISM330DLC_ACC_Disable_Single_Tap_Detection(MotionCompObj[Instance]) != BSP_ERROR_NONE)
;;;1029         {
;;;1030           ret = BSP_ERROR_COMPONENT_FAILURE;
;;;1031         }
;;;1032         else
;;;1033         {
;;;1034           ret = BSP_ERROR_NONE;
;;;1035         }
;;;1036         break;
;;;1037   #endif
;;;1038   
;;;1039       default:
;;;1040         ret = BSP_ERROR_WRONG_PARAM;
000032  f06f0401          MVN      r4,#1
;;;1041         break;
000036  bf00              NOP      
                  |L8.56|
000038  bf00              NOP                            ;1011
;;;1042     }
;;;1043   
;;;1044     return ret;
00003a  4620              MOV      r0,r4
;;;1045   }
00003c  bd70              POP      {r4-r6,pc}
;;;1046   
                          ENDP

00003e  0000              DCW      0x0000
                  |L8.64|
                          DCD      MotionCompObj

                          AREA ||i.IKS01A2_MOTION_SENSOR_Disable_Tilt_Detection||, CODE, READONLY, ALIGN=2

                  IKS01A2_MOTION_SENSOR_Disable_Tilt_Detection PROC
;;;1458    */
;;;1459   int32_t IKS01A2_MOTION_SENSOR_Disable_Tilt_Detection(uint32_t Instance)
000000  b570              PUSH     {r4-r6,lr}
;;;1460   {
000002  4605              MOV      r5,r0
;;;1461     int32_t ret;
;;;1462   
;;;1463     switch (Instance)
000004  b125              CBZ      r5,|L9.16|
000006  2d01              CMP      r5,#1
000008  d00d              BEQ      |L9.38|
00000a  2d02              CMP      r5,#2
00000c  d111              BNE      |L9.50|
00000e  e00d              B        |L9.44|
                  |L9.16|
;;;1464     {
;;;1465   #if (USE_IKS01A2_MOTION_SENSOR_LSM6DSL_0 == 1)
;;;1466       case IKS01A2_LSM6DSL_0:
;;;1467         if (LSM6DSL_ACC_Disable_Tilt_Detection(MotionCompObj[Instance]) != BSP_ERROR_NONE)
000010  490b              LDR      r1,|L9.64|
000012  f8510025          LDR      r0,[r1,r5,LSL #2]
000016  f7fffffe          BL       LSM6DSL_ACC_Disable_Tilt_Detection
00001a  b110              CBZ      r0,|L9.34|
;;;1468         {
;;;1469           ret = BSP_ERROR_COMPONENT_FAILURE;
00001c  f06f0404          MVN      r4,#4
000020  e000              B        |L9.36|
                  |L9.34|
;;;1470         }
;;;1471         else
;;;1472         {
;;;1473           ret = BSP_ERROR_NONE;
000022  2400              MOVS     r4,#0
                  |L9.36|
;;;1474         }
;;;1475         break;
000024  e008              B        |L9.56|
                  |L9.38|
;;;1476   #endif
;;;1477   
;;;1478   #if (USE_IKS01A2_MOTION_SENSOR_LSM303AGR_ACC_0 == 1)
;;;1479       case IKS01A2_LSM303AGR_ACC_0:
;;;1480         ret = BSP_ERROR_COMPONENT_FAILURE;
000026  f06f0404          MVN      r4,#4
;;;1481         break;
00002a  e005              B        |L9.56|
                  |L9.44|
;;;1482   #endif
;;;1483   
;;;1484   #if (USE_IKS01A2_MOTION_SENSOR_LSM303AGR_MAG_0 == 1)
;;;1485       case IKS01A2_LSM303AGR_MAG_0:
;;;1486         ret = BSP_ERROR_COMPONENT_FAILURE;
00002c  f06f0404          MVN      r4,#4
;;;1487         break;
000030  e002              B        |L9.56|
                  |L9.50|
;;;1488   #endif
;;;1489   
;;;1490   #if (USE_IKS01A2_MOTION_SENSOR_ISM330DLC_0 == 1)
;;;1491       case IKS01A2_ISM330DLC_0:
;;;1492         if (ISM330DLC_ACC_Disable_Tilt_Detection(MotionCompObj[Instance]) != BSP_ERROR_NONE)
;;;1493         {
;;;1494           ret = BSP_ERROR_COMPONENT_FAILURE;
;;;1495         }
;;;1496         else
;;;1497         {
;;;1498           ret = BSP_ERROR_NONE;
;;;1499         }
;;;1500         break;
;;;1501   #endif
;;;1502   
;;;1503       default:
;;;1504         ret = BSP_ERROR_WRONG_PARAM;
000032  f06f0401          MVN      r4,#1
;;;1505         break;
000036  bf00              NOP      
                  |L9.56|
000038  bf00              NOP                            ;1475
;;;1506     }
;;;1507   
;;;1508     return ret;
00003a  4620              MOV      r0,r4
;;;1509   }
00003c  bd70              POP      {r4-r6,pc}
;;;1510   
                          ENDP

00003e  0000              DCW      0x0000
                  |L9.64|
                          DCD      MotionCompObj

                          AREA ||i.IKS01A2_MOTION_SENSOR_Disable_Wake_Up_Detection||, CODE, READONLY, ALIGN=2

                  IKS01A2_MOTION_SENSOR_Disable_Wake_Up_Detection PROC
;;;1574    */
;;;1575   int32_t IKS01A2_MOTION_SENSOR_Disable_Wake_Up_Detection(uint32_t Instance)
000000  b570              PUSH     {r4-r6,lr}
;;;1576   {
000002  4605              MOV      r5,r0
;;;1577     int32_t ret;
;;;1578   
;;;1579     switch (Instance)
000004  b125              CBZ      r5,|L10.16|
000006  2d01              CMP      r5,#1
000008  d00d              BEQ      |L10.38|
00000a  2d02              CMP      r5,#2
00000c  d111              BNE      |L10.50|
00000e  e00d              B        |L10.44|
                  |L10.16|
;;;1580     {
;;;1581   #if (USE_IKS01A2_MOTION_SENSOR_LSM6DSL_0 == 1)
;;;1582       case IKS01A2_LSM6DSL_0:
;;;1583         if (LSM6DSL_ACC_Disable_Wake_Up_Detection(MotionCompObj[Instance]) != BSP_ERROR_NONE)
000010  490b              LDR      r1,|L10.64|
000012  f8510025          LDR      r0,[r1,r5,LSL #2]
000016  f7fffffe          BL       LSM6DSL_ACC_Disable_Wake_Up_Detection
00001a  b110              CBZ      r0,|L10.34|
;;;1584         {
;;;1585           ret = BSP_ERROR_COMPONENT_FAILURE;
00001c  f06f0404          MVN      r4,#4
000020  e000              B        |L10.36|
                  |L10.34|
;;;1586         }
;;;1587         else
;;;1588         {
;;;1589           ret = BSP_ERROR_NONE;
000022  2400              MOVS     r4,#0
                  |L10.36|
;;;1590         }
;;;1591         break;
000024  e008              B        |L10.56|
                  |L10.38|
;;;1592   #endif
;;;1593   
;;;1594   #if (USE_IKS01A2_MOTION_SENSOR_LSM303AGR_ACC_0 == 1)
;;;1595       case IKS01A2_LSM303AGR_ACC_0:
;;;1596         ret = BSP_ERROR_COMPONENT_FAILURE;
000026  f06f0404          MVN      r4,#4
;;;1597         break;
00002a  e005              B        |L10.56|
                  |L10.44|
;;;1598   #endif
;;;1599   
;;;1600   #if (USE_IKS01A2_MOTION_SENSOR_LSM303AGR_MAG_0 == 1)
;;;1601       case IKS01A2_LSM303AGR_MAG_0:
;;;1602         ret = BSP_ERROR_COMPONENT_FAILURE;
00002c  f06f0404          MVN      r4,#4
;;;1603         break;
000030  e002              B        |L10.56|
                  |L10.50|
;;;1604   #endif
;;;1605   
;;;1606   #if (USE_IKS01A2_MOTION_SENSOR_ISM330DLC_0 == 1)
;;;1607       case IKS01A2_ISM330DLC_0:
;;;1608         if (ISM330DLC_ACC_Disable_Wake_Up_Detection(MotionCompObj[Instance]) != BSP_ERROR_NONE)
;;;1609         {
;;;1610           ret = BSP_ERROR_COMPONENT_FAILURE;
;;;1611         }
;;;1612         else
;;;1613         {
;;;1614           ret = BSP_ERROR_NONE;
;;;1615         }
;;;1616         break;
;;;1617   #endif
;;;1618   
;;;1619       default:
;;;1620         ret = BSP_ERROR_WRONG_PARAM;
000032  f06f0401          MVN      r4,#1
;;;1621         break;
000036  bf00              NOP      
                  |L10.56|
000038  bf00              NOP                            ;1591
;;;1622     }
;;;1623   
;;;1624     return ret;
00003a  4620              MOV      r0,r4
;;;1625   }
00003c  bd70              POP      {r4-r6,pc}
;;;1626   
                          ENDP

00003e  0000              DCW      0x0000
                  |L10.64|
                          DCD      MotionCompObj

                          AREA ||i.IKS01A2_MOTION_SENSOR_Enable_6D_Orientation||, CODE, READONLY, ALIGN=2

                  IKS01A2_MOTION_SENSOR_Enable_6D_Orientation PROC
;;;352     */
;;;353    int32_t IKS01A2_MOTION_SENSOR_Enable_6D_Orientation(uint32_t Instance, IKS01A2_MOTION_SENSOR_IntPin_t IntPin)
000000  b570              PUSH     {r4-r6,lr}
;;;354    {
000002  4605              MOV      r5,r0
000004  460e              MOV      r6,r1
;;;355      int32_t ret;
;;;356    
;;;357      switch (Instance)
000006  b125              CBZ      r5,|L11.18|
000008  2d01              CMP      r5,#1
00000a  d00e              BEQ      |L11.42|
00000c  2d02              CMP      r5,#2
00000e  d112              BNE      |L11.54|
000010  e00e              B        |L11.48|
                  |L11.18|
;;;358      {
;;;359    #if (USE_IKS01A2_MOTION_SENSOR_LSM6DSL_0 == 1)
;;;360        case IKS01A2_LSM6DSL_0:
;;;361          if (LSM6DSL_ACC_Enable_6D_Orientation(MotionCompObj[Instance], (LSM6DSL_SensorIntPin_t)IntPin) != BSP_ERROR_NONE)
000012  490c              LDR      r1,|L11.68|
000014  f8510025          LDR      r0,[r1,r5,LSL #2]
000018  4631              MOV      r1,r6
00001a  f7fffffe          BL       LSM6DSL_ACC_Enable_6D_Orientation
00001e  b110              CBZ      r0,|L11.38|
;;;362          {
;;;363            ret = BSP_ERROR_COMPONENT_FAILURE;
000020  f06f0404          MVN      r4,#4
000024  e000              B        |L11.40|
                  |L11.38|
;;;364          }
;;;365          else
;;;366          {
;;;367            ret = BSP_ERROR_NONE;
000026  2400              MOVS     r4,#0
                  |L11.40|
;;;368          }
;;;369          break;
000028  e008              B        |L11.60|
                  |L11.42|
;;;370    #endif
;;;371    
;;;372    #if (USE_IKS01A2_MOTION_SENSOR_LSM303AGR_ACC_0 == 1)
;;;373        case IKS01A2_LSM303AGR_ACC_0:
;;;374          ret = BSP_ERROR_COMPONENT_FAILURE;
00002a  f06f0404          MVN      r4,#4
;;;375          break;
00002e  e005              B        |L11.60|
                  |L11.48|
;;;376    #endif
;;;377    
;;;378    #if (USE_IKS01A2_MOTION_SENSOR_LSM303AGR_MAG_0 == 1)
;;;379        case IKS01A2_LSM303AGR_MAG_0:
;;;380          ret = BSP_ERROR_COMPONENT_FAILURE;
000030  f06f0404          MVN      r4,#4
;;;381          break;
000034  e002              B        |L11.60|
                  |L11.54|
;;;382    #endif
;;;383    
;;;384    #if (USE_IKS01A2_MOTION_SENSOR_ISM330DLC_0 == 1)
;;;385        case IKS01A2_ISM330DLC_0:
;;;386          if (ISM330DLC_ACC_Enable_6D_Orientation(MotionCompObj[Instance], (ISM330DLC_SensorIntPin_t)IntPin) != BSP_ERROR_NONE)
;;;387          {
;;;388            ret = BSP_ERROR_COMPONENT_FAILURE;
;;;389          }
;;;390          else
;;;391          {
;;;392            ret = BSP_ERROR_NONE;
;;;393          }
;;;394          break;
;;;395    #endif
;;;396    
;;;397        default:
;;;398          ret = BSP_ERROR_WRONG_PARAM;
000036  f06f0401          MVN      r4,#1
;;;399          break;
00003a  bf00              NOP      
                  |L11.60|
00003c  bf00              NOP                            ;369
;;;400      }
;;;401    
;;;402      return ret;
00003e  4620              MOV      r0,r4
;;;403    }
000040  bd70              POP      {r4-r6,pc}
;;;404    
                          ENDP

000042  0000              DCW      0x0000
                  |L11.68|
                          DCD      MotionCompObj

                          AREA ||i.IKS01A2_MOTION_SENSOR_Enable_Double_Tap_Detection||, CODE, READONLY, ALIGN=2

                  IKS01A2_MOTION_SENSOR_Enable_Double_Tap_Detection PROC
;;;1053    */
;;;1054   int32_t IKS01A2_MOTION_SENSOR_Enable_Double_Tap_Detection(uint32_t Instance, IKS01A2_MOTION_SENSOR_IntPin_t IntPin)
000000  b570              PUSH     {r4-r6,lr}
;;;1055   {
000002  4605              MOV      r5,r0
000004  460e              MOV      r6,r1
;;;1056     int32_t ret;
;;;1057   
;;;1058     switch (Instance)
000006  b125              CBZ      r5,|L12.18|
000008  2d01              CMP      r5,#1
00000a  d00e              BEQ      |L12.42|
00000c  2d02              CMP      r5,#2
00000e  d112              BNE      |L12.54|
000010  e00e              B        |L12.48|
                  |L12.18|
;;;1059     {
;;;1060   #if (USE_IKS01A2_MOTION_SENSOR_LSM6DSL_0 == 1)
;;;1061       case IKS01A2_LSM6DSL_0:
;;;1062         if (LSM6DSL_ACC_Enable_Double_Tap_Detection(MotionCompObj[Instance], (LSM6DSL_SensorIntPin_t)IntPin) != BSP_ERROR_NONE)
000012  490c              LDR      r1,|L12.68|
000014  f8510025          LDR      r0,[r1,r5,LSL #2]
000018  4631              MOV      r1,r6
00001a  f7fffffe          BL       LSM6DSL_ACC_Enable_Double_Tap_Detection
00001e  b110              CBZ      r0,|L12.38|
;;;1063         {
;;;1064           ret = BSP_ERROR_COMPONENT_FAILURE;
000020  f06f0404          MVN      r4,#4
000024  e000              B        |L12.40|
                  |L12.38|
;;;1065         }
;;;1066         else
;;;1067         {
;;;1068           ret = BSP_ERROR_NONE;
000026  2400              MOVS     r4,#0
                  |L12.40|
;;;1069         }
;;;1070         break;
000028  e008              B        |L12.60|
                  |L12.42|
;;;1071   #endif
;;;1072   
;;;1073   #if (USE_IKS01A2_MOTION_SENSOR_LSM303AGR_ACC_0 == 1)
;;;1074       case IKS01A2_LSM303AGR_ACC_0:
;;;1075         ret = BSP_ERROR_COMPONENT_FAILURE;
00002a  f06f0404          MVN      r4,#4
;;;1076         break;
00002e  e005              B        |L12.60|
                  |L12.48|
;;;1077   #endif
;;;1078   
;;;1079   #if (USE_IKS01A2_MOTION_SENSOR_LSM303AGR_MAG_0 == 1)
;;;1080       case IKS01A2_LSM303AGR_MAG_0:
;;;1081         ret = BSP_ERROR_COMPONENT_FAILURE;
000030  f06f0404          MVN      r4,#4
;;;1082         break;
000034  e002              B        |L12.60|
                  |L12.54|
;;;1083   #endif
;;;1084   
;;;1085   #if (USE_IKS01A2_MOTION_SENSOR_ISM330DLC_0 == 1)
;;;1086       case IKS01A2_ISM330DLC_0:
;;;1087         if (ISM330DLC_ACC_Enable_Double_Tap_Detection(MotionCompObj[Instance], (ISM330DLC_SensorIntPin_t)IntPin) != BSP_ERROR_NONE)
;;;1088         {
;;;1089           ret = BSP_ERROR_COMPONENT_FAILURE;
;;;1090         }
;;;1091         else
;;;1092         {
;;;1093           ret = BSP_ERROR_NONE;
;;;1094         }
;;;1095         break;
;;;1096   #endif
;;;1097   
;;;1098       default:
;;;1099         ret = BSP_ERROR_WRONG_PARAM;
000036  f06f0401          MVN      r4,#1
;;;1100         break;
00003a  bf00              NOP      
                  |L12.60|
00003c  bf00              NOP                            ;1070
;;;1101     }
;;;1102   
;;;1103     return ret;
00003e  4620              MOV      r0,r4
;;;1104   }
000040  bd70              POP      {r4-r6,pc}
;;;1105   
                          ENDP

000042  0000              DCW      0x0000
                  |L12.68|
                          DCD      MotionCompObj

                          AREA ||i.IKS01A2_MOTION_SENSOR_Enable_Free_Fall_Detection||, CODE, READONLY, ALIGN=2

                  IKS01A2_MOTION_SENSOR_Enable_Free_Fall_Detection PROC
;;;526     */
;;;527    int32_t IKS01A2_MOTION_SENSOR_Enable_Free_Fall_Detection(uint32_t Instance, IKS01A2_MOTION_SENSOR_IntPin_t IntPin)
000000  b570              PUSH     {r4-r6,lr}
;;;528    {
000002  4605              MOV      r5,r0
000004  460e              MOV      r6,r1
;;;529      int32_t ret;
;;;530    
;;;531      switch (Instance)
000006  b125              CBZ      r5,|L13.18|
000008  2d01              CMP      r5,#1
00000a  d00e              BEQ      |L13.42|
00000c  2d02              CMP      r5,#2
00000e  d112              BNE      |L13.54|
000010  e00e              B        |L13.48|
                  |L13.18|
;;;532      {
;;;533    #if (USE_IKS01A2_MOTION_SENSOR_LSM6DSL_0 == 1)
;;;534        case IKS01A2_LSM6DSL_0:
;;;535          if (LSM6DSL_ACC_Enable_Free_Fall_Detection(MotionCompObj[Instance], (LSM6DSL_SensorIntPin_t)IntPin) != BSP_ERROR_NONE)
000012  490c              LDR      r1,|L13.68|
000014  f8510025          LDR      r0,[r1,r5,LSL #2]
000018  4631              MOV      r1,r6
00001a  f7fffffe          BL       LSM6DSL_ACC_Enable_Free_Fall_Detection
00001e  b110              CBZ      r0,|L13.38|
;;;536          {
;;;537            ret = BSP_ERROR_COMPONENT_FAILURE;
000020  f06f0404          MVN      r4,#4
000024  e000              B        |L13.40|
                  |L13.38|
;;;538          }
;;;539          else
;;;540          {
;;;541            ret = BSP_ERROR_NONE;
000026  2400              MOVS     r4,#0
                  |L13.40|
;;;542          }
;;;543          break;
000028  e008              B        |L13.60|
                  |L13.42|
;;;544    #endif
;;;545    
;;;546    #if (USE_IKS01A2_MOTION_SENSOR_LSM303AGR_ACC_0 == 1)
;;;547        case IKS01A2_LSM303AGR_ACC_0:
;;;548          ret = BSP_ERROR_COMPONENT_FAILURE;
00002a  f06f0404          MVN      r4,#4
;;;549          break;
00002e  e005              B        |L13.60|
                  |L13.48|
;;;550    #endif
;;;551    
;;;552    #if (USE_IKS01A2_MOTION_SENSOR_LSM303AGR_MAG_0 == 1)
;;;553        case IKS01A2_LSM303AGR_MAG_0:
;;;554          ret = BSP_ERROR_COMPONENT_FAILURE;
000030  f06f0404          MVN      r4,#4
;;;555          break;
000034  e002              B        |L13.60|
                  |L13.54|
;;;556    #endif
;;;557    
;;;558    #if (USE_IKS01A2_MOTION_SENSOR_ISM330DLC_0 == 1)
;;;559        case IKS01A2_ISM330DLC_0:
;;;560          if (ISM330DLC_ACC_Enable_Free_Fall_Detection(MotionCompObj[Instance], (ISM330DLC_SensorIntPin_t)IntPin) != BSP_ERROR_NONE)
;;;561          {
;;;562            ret = BSP_ERROR_COMPONENT_FAILURE;
;;;563          }
;;;564          else
;;;565          {
;;;566            ret = BSP_ERROR_NONE;
;;;567          }
;;;568          break;
;;;569    #endif
;;;570    
;;;571        default:
;;;572          ret = BSP_ERROR_WRONG_PARAM;
000036  f06f0401          MVN      r4,#1
;;;573          break;
00003a  bf00              NOP      
                  |L13.60|
00003c  bf00              NOP                            ;543
;;;574      }
;;;575    
;;;576      return ret;
00003e  4620              MOV      r0,r4
;;;577    }
000040  bd70              POP      {r4-r6,pc}
;;;578    
                          ENDP

000042  0000              DCW      0x0000
                  |L13.68|
                          DCD      MotionCompObj

                          AREA ||i.IKS01A2_MOTION_SENSOR_Enable_HP_Filter||, CODE, READONLY, ALIGN=1

                  IKS01A2_MOTION_SENSOR_Enable_HP_Filter PROC
;;;80      */
;;;81     int32_t IKS01A2_MOTION_SENSOR_Enable_HP_Filter(uint32_t Instance, uint8_t CutOff)
000000  4602              MOV      r2,r0
;;;82     {
;;;83       int32_t ret;
;;;84     
;;;85       switch (Instance)
000002  b122              CBZ      r2,|L14.14|
000004  2a01              CMP      r2,#1
000006  d005              BEQ      |L14.20|
000008  2a02              CMP      r2,#2
00000a  d109              BNE      |L14.32|
00000c  e005              B        |L14.26|
                  |L14.14|
;;;86       {
;;;87     #if (USE_IKS01A2_MOTION_SENSOR_ISM330DLC_0 == 1)
;;;88         case IKS01A2_ISM330DLC_0:
;;;89           if (ISM330DLC_ACC_Enable_HP_Filter(MotionCompObj[Instance], (ism330dlc_hpcf_xl_t)CutOff) != BSP_ERROR_NONE)
;;;90           {
;;;91             ret = BSP_ERROR_COMPONENT_FAILURE;
;;;92           }
;;;93           else
;;;94           {
;;;95             ret = BSP_ERROR_NONE;
;;;96           }
;;;97           break;
;;;98     #endif
;;;99     
;;;100    #if (USE_IKS01A2_MOTION_SENSOR_LSM6DSL_0 == 1)
;;;101        case IKS01A2_LSM6DSL_0:
;;;102          ret = BSP_ERROR_COMPONENT_FAILURE;
00000e  f06f0004          MVN      r0,#4
;;;103          break;
000012  e008              B        |L14.38|
                  |L14.20|
;;;104    #endif
;;;105    
;;;106    #if (USE_IKS01A2_MOTION_SENSOR_LSM303AGR_ACC_0 == 1)
;;;107        case IKS01A2_LSM303AGR_ACC_0:
;;;108          ret = BSP_ERROR_COMPONENT_FAILURE;
000014  f06f0004          MVN      r0,#4
;;;109          break;
000018  e005              B        |L14.38|
                  |L14.26|
;;;110    #endif
;;;111    
;;;112    #if (USE_IKS01A2_MOTION_SENSOR_LSM303AGR_MAG_0 == 1)
;;;113        case IKS01A2_LSM303AGR_MAG_0:
;;;114          ret = BSP_ERROR_COMPONENT_FAILURE;
00001a  f06f0004          MVN      r0,#4
;;;115          break;
00001e  e002              B        |L14.38|
                  |L14.32|
;;;116    #endif
;;;117    
;;;118        default:
;;;119          ret = BSP_ERROR_WRONG_PARAM;
000020  f06f0001          MVN      r0,#1
;;;120          break;
000024  bf00              NOP      
                  |L14.38|
000026  bf00              NOP                            ;103
;;;121      }
;;;122    
;;;123      return ret;
;;;124    }
000028  4770              BX       lr
;;;125    
                          ENDP


                          AREA ||i.IKS01A2_MOTION_SENSOR_Enable_Inactivity_Detection||, CODE, READONLY, ALIGN=2

                  IKS01A2_MOTION_SENSOR_Enable_Inactivity_Detection PROC
;;;1748    */
;;;1749   int32_t IKS01A2_MOTION_SENSOR_Enable_Inactivity_Detection(uint32_t Instance, IKS01A2_MOTION_SENSOR_IntPin_t IntPin)
000000  b570              PUSH     {r4-r6,lr}
;;;1750   {
000002  4605              MOV      r5,r0
000004  460e              MOV      r6,r1
;;;1751     int32_t ret;
;;;1752   
;;;1753     switch (Instance)
000006  b125              CBZ      r5,|L15.18|
000008  2d01              CMP      r5,#1
00000a  d00e              BEQ      |L15.42|
00000c  2d02              CMP      r5,#2
00000e  d112              BNE      |L15.54|
000010  e00e              B        |L15.48|
                  |L15.18|
;;;1754     {
;;;1755   #if (USE_IKS01A2_MOTION_SENSOR_LSM6DSL_0 == 1)
;;;1756       case IKS01A2_LSM6DSL_0:
;;;1757         if (LSM6DSL_ACC_Enable_Inactivity_Detection(MotionCompObj[Instance], (LSM6DSL_SensorIntPin_t)IntPin) != BSP_ERROR_NONE)
000012  490c              LDR      r1,|L15.68|
000014  f8510025          LDR      r0,[r1,r5,LSL #2]
000018  4631              MOV      r1,r6
00001a  f7fffffe          BL       LSM6DSL_ACC_Enable_Inactivity_Detection
00001e  b110              CBZ      r0,|L15.38|
;;;1758         {
;;;1759           ret = BSP_ERROR_COMPONENT_FAILURE;
000020  f06f0404          MVN      r4,#4
000024  e000              B        |L15.40|
                  |L15.38|
;;;1760         }
;;;1761         else
;;;1762         {
;;;1763           ret = BSP_ERROR_NONE;
000026  2400              MOVS     r4,#0
                  |L15.40|
;;;1764         }
;;;1765         break;
000028  e008              B        |L15.60|
                  |L15.42|
;;;1766   #endif
;;;1767   
;;;1768   #if (USE_IKS01A2_MOTION_SENSOR_LSM303AGR_ACC_0 == 1)
;;;1769       case IKS01A2_LSM303AGR_ACC_0:
;;;1770         ret = BSP_ERROR_COMPONENT_FAILURE;
00002a  f06f0404          MVN      r4,#4
;;;1771         break;
00002e  e005              B        |L15.60|
                  |L15.48|
;;;1772   #endif
;;;1773   
;;;1774   #if (USE_IKS01A2_MOTION_SENSOR_LSM303AGR_MAG_0 == 1)
;;;1775       case IKS01A2_LSM303AGR_MAG_0:
;;;1776         ret = BSP_ERROR_COMPONENT_FAILURE;
000030  f06f0404          MVN      r4,#4
;;;1777         break;
000034  e002              B        |L15.60|
                  |L15.54|
;;;1778   #endif
;;;1779   
;;;1780       default:
;;;1781         ret = BSP_ERROR_WRONG_PARAM;
000036  f06f0401          MVN      r4,#1
;;;1782         break;
00003a  bf00              NOP      
                  |L15.60|
00003c  bf00              NOP                            ;1765
;;;1783     }
;;;1784   
;;;1785     return ret;
00003e  4620              MOV      r0,r4
;;;1786   }
000040  bd70              POP      {r4-r6,pc}
;;;1787   
                          ENDP

000042  0000              DCW      0x0000
                  |L15.68|
                          DCD      MotionCompObj

                          AREA ||i.IKS01A2_MOTION_SENSOR_Enable_Pedometer||, CODE, READONLY, ALIGN=2

                  IKS01A2_MOTION_SENSOR_Enable_Pedometer PROC
;;;757     */
;;;758    int32_t IKS01A2_MOTION_SENSOR_Enable_Pedometer(uint32_t Instance)
000000  b570              PUSH     {r4-r6,lr}
;;;759    {
000002  4605              MOV      r5,r0
;;;760      int32_t ret;
;;;761    
;;;762      switch (Instance)
000004  b125              CBZ      r5,|L16.16|
000006  2d01              CMP      r5,#1
000008  d00d              BEQ      |L16.38|
00000a  2d02              CMP      r5,#2
00000c  d111              BNE      |L16.50|
00000e  e00d              B        |L16.44|
                  |L16.16|
;;;763      {
;;;764    #if (USE_IKS01A2_MOTION_SENSOR_LSM6DSL_0 == 1)
;;;765        case IKS01A2_LSM6DSL_0:
;;;766          if (LSM6DSL_ACC_Enable_Pedometer(MotionCompObj[Instance]) != BSP_ERROR_NONE)
000010  490b              LDR      r1,|L16.64|
000012  f8510025          LDR      r0,[r1,r5,LSL #2]
000016  f7fffffe          BL       LSM6DSL_ACC_Enable_Pedometer
00001a  b110              CBZ      r0,|L16.34|
;;;767          {
;;;768            ret = BSP_ERROR_COMPONENT_FAILURE;
00001c  f06f0404          MVN      r4,#4
000020  e000              B        |L16.36|
                  |L16.34|
;;;769          }
;;;770          else
;;;771          {
;;;772            ret = BSP_ERROR_NONE;
000022  2400              MOVS     r4,#0
                  |L16.36|
;;;773          }
;;;774          break;
000024  e008              B        |L16.56|
                  |L16.38|
;;;775    #endif
;;;776    
;;;777    #if (USE_IKS01A2_MOTION_SENSOR_LSM303AGR_ACC_0 == 1)
;;;778        case IKS01A2_LSM303AGR_ACC_0:
;;;779          ret = BSP_ERROR_COMPONENT_FAILURE;
000026  f06f0404          MVN      r4,#4
;;;780          break;
00002a  e005              B        |L16.56|
                  |L16.44|
;;;781    #endif
;;;782    
;;;783    #if (USE_IKS01A2_MOTION_SENSOR_LSM303AGR_MAG_0 == 1)
;;;784        case IKS01A2_LSM303AGR_MAG_0:
;;;785          ret = BSP_ERROR_COMPONENT_FAILURE;
00002c  f06f0404          MVN      r4,#4
;;;786          break;
000030  e002              B        |L16.56|
                  |L16.50|
;;;787    #endif
;;;788    
;;;789        default:
;;;790          ret = BSP_ERROR_WRONG_PARAM;
000032  f06f0401          MVN      r4,#1
;;;791          break;
000036  bf00              NOP      
                  |L16.56|
000038  bf00              NOP                            ;774
;;;792      }
;;;793    
;;;794      return ret;
00003a  4620              MOV      r0,r4
;;;795    }
00003c  bd70              POP      {r4-r6,pc}
;;;796    
                          ENDP

00003e  0000              DCW      0x0000
                  |L16.64|
                          DCD      MotionCompObj

                          AREA ||i.IKS01A2_MOTION_SENSOR_Enable_Single_Tap_Detection||, CODE, READONLY, ALIGN=2

                  IKS01A2_MOTION_SENSOR_Enable_Single_Tap_Detection PROC
;;;937     */
;;;938    int32_t IKS01A2_MOTION_SENSOR_Enable_Single_Tap_Detection(uint32_t Instance, IKS01A2_MOTION_SENSOR_IntPin_t IntPin)
000000  b570              PUSH     {r4-r6,lr}
;;;939    {
000002  4605              MOV      r5,r0
000004  460e              MOV      r6,r1
;;;940      int32_t ret;
;;;941    
;;;942      switch (Instance)
000006  b125              CBZ      r5,|L17.18|
000008  2d01              CMP      r5,#1
00000a  d00e              BEQ      |L17.42|
00000c  2d02              CMP      r5,#2
00000e  d112              BNE      |L17.54|
000010  e00e              B        |L17.48|
                  |L17.18|
;;;943      {
;;;944    #if (USE_IKS01A2_MOTION_SENSOR_LSM6DSL_0 == 1)
;;;945        case IKS01A2_LSM6DSL_0:
;;;946          if (LSM6DSL_ACC_Enable_Single_Tap_Detection(MotionCompObj[Instance], (LSM6DSL_SensorIntPin_t)IntPin) != BSP_ERROR_NONE)
000012  490c              LDR      r1,|L17.68|
000014  f8510025          LDR      r0,[r1,r5,LSL #2]
000018  4631              MOV      r1,r6
00001a  f7fffffe          BL       LSM6DSL_ACC_Enable_Single_Tap_Detection
00001e  b110              CBZ      r0,|L17.38|
;;;947          {
;;;948            ret = BSP_ERROR_COMPONENT_FAILURE;
000020  f06f0404          MVN      r4,#4
000024  e000              B        |L17.40|
                  |L17.38|
;;;949          }
;;;950          else
;;;951          {
;;;952            ret = BSP_ERROR_NONE;
000026  2400              MOVS     r4,#0
                  |L17.40|
;;;953          }
;;;954          break;
000028  e008              B        |L17.60|
                  |L17.42|
;;;955    #endif
;;;956    
;;;957    #if (USE_IKS01A2_MOTION_SENSOR_LSM303AGR_ACC_0 == 1)
;;;958        case IKS01A2_LSM303AGR_ACC_0:
;;;959          ret = BSP_ERROR_COMPONENT_FAILURE;
00002a  f06f0404          MVN      r4,#4
;;;960          break;
00002e  e005              B        |L17.60|
                  |L17.48|
;;;961    #endif
;;;962    
;;;963    #if (USE_IKS01A2_MOTION_SENSOR_LSM303AGR_MAG_0 == 1)
;;;964        case IKS01A2_LSM303AGR_MAG_0:
;;;965          ret = BSP_ERROR_COMPONENT_FAILURE;
000030  f06f0404          MVN      r4,#4
;;;966          break;
000034  e002              B        |L17.60|
                  |L17.54|
;;;967    #endif
;;;968    
;;;969    #if (USE_IKS01A2_MOTION_SENSOR_ISM330DLC_0 == 1)
;;;970        case IKS01A2_ISM330DLC_0:
;;;971          if (ISM330DLC_ACC_Enable_Single_Tap_Detection(MotionCompObj[Instance], (ISM330DLC_SensorIntPin_t)IntPin) != BSP_ERROR_NONE)
;;;972          {
;;;973            ret = BSP_ERROR_COMPONENT_FAILURE;
;;;974          }
;;;975          else
;;;976          {
;;;977            ret = BSP_ERROR_NONE;
;;;978          }
;;;979          break;
;;;980    #endif
;;;981    
;;;982        default:
;;;983          ret = BSP_ERROR_WRONG_PARAM;
000036  f06f0401          MVN      r4,#1
;;;984          break;
00003a  bf00              NOP      
                  |L17.60|
00003c  bf00              NOP                            ;954
;;;985      }
;;;986    
;;;987      return ret;
00003e  4620              MOV      r0,r4
;;;988    }
000040  bd70              POP      {r4-r6,pc}
;;;989    
                          ENDP

000042  0000              DCW      0x0000
                  |L17.68|
                          DCD      MotionCompObj

                          AREA ||i.IKS01A2_MOTION_SENSOR_Enable_Tilt_Detection||, CODE, READONLY, ALIGN=2

                  IKS01A2_MOTION_SENSOR_Enable_Tilt_Detection PROC
;;;1401    */
;;;1402   int32_t IKS01A2_MOTION_SENSOR_Enable_Tilt_Detection(uint32_t Instance, IKS01A2_MOTION_SENSOR_IntPin_t IntPin)
000000  b570              PUSH     {r4-r6,lr}
;;;1403   {
000002  4605              MOV      r5,r0
000004  460e              MOV      r6,r1
;;;1404     int32_t ret;
;;;1405   
;;;1406     switch (Instance)
000006  b125              CBZ      r5,|L18.18|
000008  2d01              CMP      r5,#1
00000a  d00e              BEQ      |L18.42|
00000c  2d02              CMP      r5,#2
00000e  d112              BNE      |L18.54|
000010  e00e              B        |L18.48|
                  |L18.18|
;;;1407     {
;;;1408   #if (USE_IKS01A2_MOTION_SENSOR_LSM6DSL_0 == 1)
;;;1409       case IKS01A2_LSM6DSL_0:
;;;1410         if (LSM6DSL_ACC_Enable_Tilt_Detection(MotionCompObj[Instance], (LSM6DSL_SensorIntPin_t)IntPin) != BSP_ERROR_NONE)
000012  490c              LDR      r1,|L18.68|
000014  f8510025          LDR      r0,[r1,r5,LSL #2]
000018  4631              MOV      r1,r6
00001a  f7fffffe          BL       LSM6DSL_ACC_Enable_Tilt_Detection
00001e  b110              CBZ      r0,|L18.38|
;;;1411         {
;;;1412           ret = BSP_ERROR_COMPONENT_FAILURE;
000020  f06f0404          MVN      r4,#4
000024  e000              B        |L18.40|
                  |L18.38|
;;;1413         }
;;;1414         else
;;;1415         {
;;;1416           ret = BSP_ERROR_NONE;
000026  2400              MOVS     r4,#0
                  |L18.40|
;;;1417         }
;;;1418         break;
000028  e008              B        |L18.60|
                  |L18.42|
;;;1419   #endif
;;;1420   
;;;1421   #if (USE_IKS01A2_MOTION_SENSOR_LSM303AGR_ACC_0 == 1)
;;;1422       case IKS01A2_LSM303AGR_ACC_0:
;;;1423         ret = BSP_ERROR_COMPONENT_FAILURE;
00002a  f06f0404          MVN      r4,#4
;;;1424         break;
00002e  e005              B        |L18.60|
                  |L18.48|
;;;1425   #endif
;;;1426   
;;;1427   #if (USE_IKS01A2_MOTION_SENSOR_LSM303AGR_MAG_0 == 1)
;;;1428       case IKS01A2_LSM303AGR_MAG_0:
;;;1429         ret = BSP_ERROR_COMPONENT_FAILURE;
000030  f06f0404          MVN      r4,#4
;;;1430         break;
000034  e002              B        |L18.60|
                  |L18.54|
;;;1431   #endif
;;;1432   
;;;1433   #if (USE_IKS01A2_MOTION_SENSOR_ISM330DLC_0 == 1)
;;;1434       case IKS01A2_ISM330DLC_0:
;;;1435         if (ISM330DLC_ACC_Enable_Tilt_Detection(MotionCompObj[Instance], (ISM330DLC_SensorIntPin_t)IntPin) != BSP_ERROR_NONE)
;;;1436         {
;;;1437           ret = BSP_ERROR_COMPONENT_FAILURE;
;;;1438         }
;;;1439         else
;;;1440         {
;;;1441           ret = BSP_ERROR_NONE;
;;;1442         }
;;;1443         break;
;;;1444   #endif
;;;1445   
;;;1446       default:
;;;1447         ret = BSP_ERROR_WRONG_PARAM;
000036  f06f0401          MVN      r4,#1
;;;1448         break;
00003a  bf00              NOP      
                  |L18.60|
00003c  bf00              NOP                            ;1418
;;;1449     }
;;;1450   
;;;1451     return ret;
00003e  4620              MOV      r0,r4
;;;1452   }
000040  bd70              POP      {r4-r6,pc}
;;;1453   
                          ENDP

000042  0000              DCW      0x0000
                  |L18.68|
                          DCD      MotionCompObj

                          AREA ||i.IKS01A2_MOTION_SENSOR_Enable_Wake_Up_Detection||, CODE, READONLY, ALIGN=2

                  IKS01A2_MOTION_SENSOR_Enable_Wake_Up_Detection PROC
;;;1517    */
;;;1518   int32_t IKS01A2_MOTION_SENSOR_Enable_Wake_Up_Detection(uint32_t Instance, IKS01A2_MOTION_SENSOR_IntPin_t IntPin)
000000  b570              PUSH     {r4-r6,lr}
;;;1519   {
000002  4605              MOV      r5,r0
000004  460e              MOV      r6,r1
;;;1520     int32_t ret;
;;;1521   
;;;1522     switch (Instance)
000006  b125              CBZ      r5,|L19.18|
000008  2d01              CMP      r5,#1
00000a  d00e              BEQ      |L19.42|
00000c  2d02              CMP      r5,#2
00000e  d112              BNE      |L19.54|
000010  e00e              B        |L19.48|
                  |L19.18|
;;;1523     {
;;;1524   #if (USE_IKS01A2_MOTION_SENSOR_LSM6DSL_0 == 1)
;;;1525       case IKS01A2_LSM6DSL_0:
;;;1526         if (LSM6DSL_ACC_Enable_Wake_Up_Detection(MotionCompObj[Instance], (LSM6DSL_SensorIntPin_t)IntPin) != BSP_ERROR_NONE)
000012  490c              LDR      r1,|L19.68|
000014  f8510025          LDR      r0,[r1,r5,LSL #2]
000018  4631              MOV      r1,r6
00001a  f7fffffe          BL       LSM6DSL_ACC_Enable_Wake_Up_Detection
00001e  b110              CBZ      r0,|L19.38|
;;;1527         {
;;;1528           ret = BSP_ERROR_COMPONENT_FAILURE;
000020  f06f0404          MVN      r4,#4
000024  e000              B        |L19.40|
                  |L19.38|
;;;1529         }
;;;1530         else
;;;1531         {
;;;1532           ret = BSP_ERROR_NONE;
000026  2400              MOVS     r4,#0
                  |L19.40|
;;;1533         }
;;;1534         break;
000028  e008              B        |L19.60|
                  |L19.42|
;;;1535   #endif
;;;1536   
;;;1537   #if (USE_IKS01A2_MOTION_SENSOR_LSM303AGR_ACC_0 == 1)
;;;1538       case IKS01A2_LSM303AGR_ACC_0:
;;;1539         ret = BSP_ERROR_COMPONENT_FAILURE;
00002a  f06f0404          MVN      r4,#4
;;;1540         break;
00002e  e005              B        |L19.60|
                  |L19.48|
;;;1541   #endif
;;;1542   
;;;1543   #if (USE_IKS01A2_MOTION_SENSOR_LSM303AGR_MAG_0 == 1)
;;;1544       case IKS01A2_LSM303AGR_MAG_0:
;;;1545         ret = BSP_ERROR_COMPONENT_FAILURE;
000030  f06f0404          MVN      r4,#4
;;;1546         break;
000034  e002              B        |L19.60|
                  |L19.54|
;;;1547   #endif
;;;1548   
;;;1549   #if (USE_IKS01A2_MOTION_SENSOR_ISM330DLC_0 == 1)
;;;1550       case IKS01A2_ISM330DLC_0:
;;;1551         if (ISM330DLC_ACC_Enable_Wake_Up_Detection(MotionCompObj[Instance], (ISM330DLC_SensorIntPin_t)IntPin) != BSP_ERROR_NONE)
;;;1552         {
;;;1553           ret = BSP_ERROR_COMPONENT_FAILURE;
;;;1554         }
;;;1555         else
;;;1556         {
;;;1557           ret = BSP_ERROR_NONE;
;;;1558         }
;;;1559         break;
;;;1560   #endif
;;;1561   
;;;1562       default:
;;;1563         ret = BSP_ERROR_WRONG_PARAM;
000036  f06f0401          MVN      r4,#1
;;;1564         break;
00003a  bf00              NOP      
                  |L19.60|
00003c  bf00              NOP                            ;1534
;;;1565     }
;;;1566   
;;;1567     return ret;
00003e  4620              MOV      r0,r4
;;;1568   }
000040  bd70              POP      {r4-r6,pc}
;;;1569   
                          ENDP

000042  0000              DCW      0x0000
                  |L19.68|
                          DCD      MotionCompObj

                          AREA ||i.IKS01A2_MOTION_SENSOR_FIFO_Get_Axis||, CODE, READONLY, ALIGN=2

                  IKS01A2_MOTION_SENSOR_FIFO_Get_Axis PROC
;;;3713    */
;;;3714   int32_t IKS01A2_MOTION_SENSOR_FIFO_Get_Axis(uint32_t Instance, uint32_t Function, int32_t *Data)
000000  e92d41f0          PUSH     {r4-r8,lr}
;;;3715   {
000004  4605              MOV      r5,r0
000006  460e              MOV      r6,r1
000008  4617              MOV      r7,r2
;;;3716     int32_t ret;
;;;3717   
;;;3718     switch (Instance)
00000a  b125              CBZ      r5,|L20.22|
00000c  2d01              CMP      r5,#1
00000e  d024              BEQ      |L20.90|
000010  2d02              CMP      r5,#2
000012  d128              BNE      |L20.102|
000014  e024              B        |L20.96|
                  |L20.22|
;;;3719     {
;;;3720   #if (USE_IKS01A2_MOTION_SENSOR_LSM6DSL_0 == 1)
;;;3721       case IKS01A2_LSM6DSL_0:
;;;3722         if ((Function & MOTION_ACCELERO) == MOTION_ACCELERO)
000016  f0060002          AND      r0,r6,#2
00001a  2802              CMP      r0,#2
00001c  d10b              BNE      |L20.54|
;;;3723         {
;;;3724           if (LSM6DSL_FIFO_ACC_Get_Axis(MotionCompObj[Instance], Data) != BSP_ERROR_NONE)
00001e  4915              LDR      r1,|L20.116|
000020  f8510025          LDR      r0,[r1,r5,LSL #2]
000024  4639              MOV      r1,r7
000026  f7fffffe          BL       LSM6DSL_FIFO_ACC_Get_Axis
00002a  b110              CBZ      r0,|L20.50|
;;;3725           {
;;;3726             ret = BSP_ERROR_COMPONENT_FAILURE;
00002c  f06f0404          MVN      r4,#4
000030  e012              B        |L20.88|
                  |L20.50|
;;;3727           }
;;;3728           else
;;;3729           {
;;;3730             ret = BSP_ERROR_NONE;
000032  2400              MOVS     r4,#0
000034  e010              B        |L20.88|
                  |L20.54|
;;;3731           }
;;;3732         }
;;;3733         else if ((Function & MOTION_GYRO) == MOTION_GYRO)
000036  f0060001          AND      r0,r6,#1
00003a  b158              CBZ      r0,|L20.84|
;;;3734         {
;;;3735           if (LSM6DSL_FIFO_GYRO_Get_Axis(MotionCompObj[Instance], Data) != BSP_ERROR_NONE)
00003c  490d              LDR      r1,|L20.116|
00003e  f8510025          LDR      r0,[r1,r5,LSL #2]
000042  4639              MOV      r1,r7
000044  f7fffffe          BL       LSM6DSL_FIFO_GYRO_Get_Axis
000048  b110              CBZ      r0,|L20.80|
;;;3736           {
;;;3737             ret = BSP_ERROR_COMPONENT_FAILURE;
00004a  f06f0404          MVN      r4,#4
00004e  e003              B        |L20.88|
                  |L20.80|
;;;3738           }
;;;3739           else
;;;3740           {
;;;3741             ret = BSP_ERROR_NONE;
000050  2400              MOVS     r4,#0
000052  e001              B        |L20.88|
                  |L20.84|
;;;3742           }
;;;3743         }
;;;3744         else
;;;3745         {
;;;3746           ret = BSP_ERROR_WRONG_PARAM;
000054  f06f0401          MVN      r4,#1
                  |L20.88|
;;;3747         }
;;;3748         break;
000058  e008              B        |L20.108|
                  |L20.90|
;;;3749   #endif
;;;3750   
;;;3751   #if (USE_IKS01A2_MOTION_SENSOR_ISM330DLC_0 == 1)
;;;3752       case IKS01A2_ISM330DLC_0:
;;;3753         if ((Function & MOTION_ACCELERO) == MOTION_ACCELERO)
;;;3754         {
;;;3755           if (ISM330DLC_FIFO_ACC_Get_Axis(MotionCompObj[Instance], Data) != BSP_ERROR_NONE)
;;;3756           {
;;;3757             ret = BSP_ERROR_COMPONENT_FAILURE;
;;;3758           }
;;;3759           else
;;;3760           {
;;;3761             ret = BSP_ERROR_NONE;
;;;3762           }
;;;3763         }
;;;3764         else if ((Function & MOTION_GYRO) == MOTION_GYRO)
;;;3765         {
;;;3766           if (ISM330DLC_FIFO_GYRO_Get_Axis(MotionCompObj[Instance], Data) != BSP_ERROR_NONE)
;;;3767           {
;;;3768             ret = BSP_ERROR_COMPONENT_FAILURE;
;;;3769           }
;;;3770           else
;;;3771           {
;;;3772             ret = BSP_ERROR_NONE;
;;;3773           }
;;;3774         }
;;;3775         else
;;;3776         {
;;;3777           ret = BSP_ERROR_WRONG_PARAM;
;;;3778         }
;;;3779         break;
;;;3780   #endif
;;;3781   
;;;3782   #if (USE_IKS01A2_MOTION_SENSOR_LSM303AGR_ACC_0 == 1)
;;;3783       case IKS01A2_LSM303AGR_ACC_0:
;;;3784         ret = BSP_ERROR_COMPONENT_FAILURE;
00005a  f06f0404          MVN      r4,#4
;;;3785         break;
00005e  e005              B        |L20.108|
                  |L20.96|
;;;3786   #endif
;;;3787   
;;;3788   #if (USE_IKS01A2_MOTION_SENSOR_LSM303AGR_MAG_0 == 1)
;;;3789       case IKS01A2_LSM303AGR_MAG_0:
;;;3790         ret = BSP_ERROR_COMPONENT_FAILURE;
000060  f06f0404          MVN      r4,#4
;;;3791         break;
000064  e002              B        |L20.108|
                  |L20.102|
;;;3792   #endif
;;;3793   
;;;3794       default:
;;;3795         ret = BSP_ERROR_WRONG_PARAM;
000066  f06f0401          MVN      r4,#1
;;;3796         break;
00006a  bf00              NOP      
                  |L20.108|
00006c  bf00              NOP                            ;3748
;;;3797     }
;;;3798   
;;;3799     return ret;
00006e  4620              MOV      r0,r4
;;;3800   }
000070  e8bd81f0          POP      {r4-r8,pc}
;;;3801   
                          ENDP

                  |L20.116|
                          DCD      MotionCompObj

                          AREA ||i.IKS01A2_MOTION_SENSOR_FIFO_Get_Data_Word||, CODE, READONLY, ALIGN=1

                  IKS01A2_MOTION_SENSOR_FIFO_Get_Data_Word PROC
;;;3809    */
;;;3810   int32_t IKS01A2_MOTION_SENSOR_FIFO_Get_Data_Word(uint32_t Instance,
000000  4603              MOV      r3,r0
;;;3811                                                    uint32_t Function,
;;;3812                                                    int16_t *Data)
;;;3813   {
;;;3814     int32_t ret;
;;;3815   
;;;3816     switch (Instance)
000002  b113              CBZ      r3,|L21.10|
000004  2b02              CMP      r3,#2
000006  d106              BNE      |L21.22|
000008  e002              B        |L21.16|
                  |L21.10|
;;;3817     {
;;;3818   #if (USE_IKS01A2_MOTION_SENSOR_LSM6DSL_0 == 1)
;;;3819       case IKS01A2_LSM6DSL_0:
;;;3820         ret = BSP_ERROR_COMPONENT_FAILURE;
00000a  f06f0004          MVN      r0,#4
;;;3821         break;
00000e  e005              B        |L21.28|
                  |L21.16|
;;;3822   #endif
;;;3823   
;;;3824   #if (USE_IKS01A2_MOTION_SENSOR_ISM330DLC_0 == 1)
;;;3825       case IKS01A2_ISM330DLC_0:
;;;3826         if ((Function & MOTION_ACCELERO) == MOTION_ACCELERO)
;;;3827         {
;;;3828           if (ISM330DLC_FIFO_Get_Data_Word(MotionCompObj[Instance], Data) != BSP_ERROR_NONE)
;;;3829           {
;;;3830             ret = BSP_ERROR_COMPONENT_FAILURE;
;;;3831           }
;;;3832           else
;;;3833           {
;;;3834             ret = BSP_ERROR_NONE;
;;;3835           }
;;;3836         }
;;;3837         else if ((Function & MOTION_GYRO) == MOTION_GYRO)
;;;3838         {
;;;3839           if (ISM330DLC_FIFO_Get_Data_Word(MotionCompObj[Instance], Data) != BSP_ERROR_NONE)
;;;3840           {
;;;3841             ret = BSP_ERROR_COMPONENT_FAILURE;
;;;3842           }
;;;3843           else
;;;3844           {
;;;3845             ret = BSP_ERROR_NONE;
;;;3846           }
;;;3847         }
;;;3848         else
;;;3849         {
;;;3850           ret = BSP_ERROR_WRONG_PARAM;
;;;3851         }
;;;3852         break;
;;;3853   #endif
;;;3854   
;;;3855   #if (USE_IKS01A2_MOTION_SENSOR_LSM303AGR_MAG_0 == 1)
;;;3856       case IKS01A2_LSM303AGR_MAG_0:
;;;3857         ret = BSP_ERROR_COMPONENT_FAILURE;
000010  f06f0004          MVN      r0,#4
;;;3858         break;
000014  e002              B        |L21.28|
                  |L21.22|
;;;3859   #endif
;;;3860   
;;;3861       default:
;;;3862         ret = BSP_ERROR_WRONG_PARAM;
000016  f06f0001          MVN      r0,#1
;;;3863         break;
00001a  bf00              NOP      
                  |L21.28|
00001c  bf00              NOP                            ;3821
;;;3864     }
;;;3865   
;;;3866     return ret;
;;;3867   }
00001e  4770              BX       lr
;;;3868   
                          ENDP


                          AREA ||i.IKS01A2_MOTION_SENSOR_FIFO_Get_Full_Status||, CODE, READONLY, ALIGN=2

                  IKS01A2_MOTION_SENSOR_FIFO_Get_Full_Status PROC
;;;3158    */
;;;3159   int32_t IKS01A2_MOTION_SENSOR_FIFO_Get_Full_Status(uint32_t Instance, uint8_t *Status)
000000  b570              PUSH     {r4-r6,lr}
;;;3160   {
000002  4605              MOV      r5,r0
000004  460e              MOV      r6,r1
;;;3161     int32_t ret;
;;;3162   
;;;3163     switch (Instance)
000006  b125              CBZ      r5,|L22.18|
000008  2d01              CMP      r5,#1
00000a  d00e              BEQ      |L22.42|
00000c  2d02              CMP      r5,#2
00000e  d112              BNE      |L22.54|
000010  e00e              B        |L22.48|
                  |L22.18|
;;;3164     {
;;;3165   #if (USE_IKS01A2_MOTION_SENSOR_LSM6DSL_0 == 1)
;;;3166       case IKS01A2_LSM6DSL_0:
;;;3167         if (LSM6DSL_FIFO_Get_Full_Status(MotionCompObj[Instance], Status) != BSP_ERROR_NONE)
000012  490c              LDR      r1,|L22.68|
000014  f8510025          LDR      r0,[r1,r5,LSL #2]
000018  4631              MOV      r1,r6
00001a  f7fffffe          BL       LSM6DSL_FIFO_Get_Full_Status
00001e  b110              CBZ      r0,|L22.38|
;;;3168         {
;;;3169           ret = BSP_ERROR_COMPONENT_FAILURE;
000020  f06f0404          MVN      r4,#4
000024  e000              B        |L22.40|
                  |L22.38|
;;;3170         }
;;;3171         else
;;;3172         {
;;;3173           ret = BSP_ERROR_NONE;
000026  2400              MOVS     r4,#0
                  |L22.40|
;;;3174         }
;;;3175         break;
000028  e008              B        |L22.60|
                  |L22.42|
;;;3176   #endif
;;;3177   
;;;3178   #if (USE_IKS01A2_MOTION_SENSOR_ISM330DLC_0 == 1)
;;;3179       case IKS01A2_ISM330DLC_0:
;;;3180         if (ISM330DLC_FIFO_Get_Full_Status(MotionCompObj[Instance], Status) != BSP_ERROR_NONE)
;;;3181         {
;;;3182           ret = BSP_ERROR_COMPONENT_FAILURE;
;;;3183         }
;;;3184         else
;;;3185         {
;;;3186           ret = BSP_ERROR_NONE;
;;;3187         }
;;;3188         break;
;;;3189   #endif
;;;3190   
;;;3191   #if (USE_IKS01A2_MOTION_SENSOR_LSM303AGR_ACC_0 == 1)
;;;3192       case IKS01A2_LSM303AGR_ACC_0:
;;;3193         ret = BSP_ERROR_COMPONENT_FAILURE;
00002a  f06f0404          MVN      r4,#4
;;;3194         break;
00002e  e005              B        |L22.60|
                  |L22.48|
;;;3195   #endif
;;;3196   
;;;3197   #if (USE_IKS01A2_MOTION_SENSOR_LSM303AGR_MAG_0 == 1)
;;;3198       case IKS01A2_LSM303AGR_MAG_0:
;;;3199         ret = BSP_ERROR_COMPONENT_FAILURE;
000030  f06f0404          MVN      r4,#4
;;;3200         break;
000034  e002              B        |L22.60|
                  |L22.54|
;;;3201   #endif
;;;3202   
;;;3203       default:
;;;3204         ret = BSP_ERROR_WRONG_PARAM;
000036  f06f0401          MVN      r4,#1
;;;3205         break;
00003a  bf00              NOP      
                  |L22.60|
00003c  bf00              NOP                            ;3175
;;;3206     }
;;;3207   
;;;3208     return ret;
00003e  4620              MOV      r0,r4
;;;3209   }
000040  bd70              POP      {r4-r6,pc}
;;;3210   
                          ENDP

000042  0000              DCW      0x0000
                  |L22.68|
                          DCD      MotionCompObj

                          AREA ||i.IKS01A2_MOTION_SENSOR_FIFO_Get_Num_Samples||, CODE, READONLY, ALIGN=2

                  IKS01A2_MOTION_SENSOR_FIFO_Get_Num_Samples PROC
;;;3100    */
;;;3101   int32_t IKS01A2_MOTION_SENSOR_FIFO_Get_Num_Samples(uint32_t Instance, uint16_t *NumSamples)
000000  b570              PUSH     {r4-r6,lr}
;;;3102   {
000002  4605              MOV      r5,r0
000004  460e              MOV      r6,r1
;;;3103     int32_t ret;
;;;3104   
;;;3105     switch (Instance)
000006  b125              CBZ      r5,|L23.18|
000008  2d01              CMP      r5,#1
00000a  d00e              BEQ      |L23.42|
00000c  2d02              CMP      r5,#2
00000e  d112              BNE      |L23.54|
000010  e00e              B        |L23.48|
                  |L23.18|
;;;3106     {
;;;3107   #if (USE_IKS01A2_MOTION_SENSOR_LSM6DSL_0 == 1)
;;;3108       case IKS01A2_LSM6DSL_0:
;;;3109         if (LSM6DSL_FIFO_Get_Num_Samples(MotionCompObj[Instance], NumSamples) != BSP_ERROR_NONE)
000012  490c              LDR      r1,|L23.68|
000014  f8510025          LDR      r0,[r1,r5,LSL #2]
000018  4631              MOV      r1,r6
00001a  f7fffffe          BL       LSM6DSL_FIFO_Get_Num_Samples
00001e  b110              CBZ      r0,|L23.38|
;;;3110         {
;;;3111           ret = BSP_ERROR_COMPONENT_FAILURE;
000020  f06f0404          MVN      r4,#4
000024  e000              B        |L23.40|
                  |L23.38|
;;;3112         }
;;;3113         else
;;;3114         {
;;;3115           ret = BSP_ERROR_NONE;
000026  2400              MOVS     r4,#0
                  |L23.40|
;;;3116         }
;;;3117         break;
000028  e008              B        |L23.60|
                  |L23.42|
;;;3118   #endif
;;;3119   
;;;3120   #if (USE_IKS01A2_MOTION_SENSOR_ISM330DLC_0 == 1)
;;;3121       case IKS01A2_ISM330DLC_0:
;;;3122         if (ISM330DLC_FIFO_Get_Num_Samples(MotionCompObj[Instance], NumSamples) != BSP_ERROR_NONE)
;;;3123         {
;;;3124           ret = BSP_ERROR_COMPONENT_FAILURE;
;;;3125         }
;;;3126         else
;;;3127         {
;;;3128           ret = BSP_ERROR_NONE;
;;;3129         }
;;;3130         break;
;;;3131   #endif
;;;3132   
;;;3133   #if (USE_IKS01A2_MOTION_SENSOR_LSM303AGR_ACC_0 == 1)
;;;3134       case IKS01A2_LSM303AGR_ACC_0:
;;;3135         ret = BSP_ERROR_COMPONENT_FAILURE;
00002a  f06f0404          MVN      r4,#4
;;;3136         break;
00002e  e005              B        |L23.60|
                  |L23.48|
;;;3137   #endif
;;;3138   
;;;3139   #if (USE_IKS01A2_MOTION_SENSOR_LSM303AGR_MAG_0 == 1)
;;;3140       case IKS01A2_LSM303AGR_MAG_0:
;;;3141         ret = BSP_ERROR_COMPONENT_FAILURE;
000030  f06f0404          MVN      r4,#4
;;;3142         break;
000034  e002              B        |L23.60|
                  |L23.54|
;;;3143   #endif
;;;3144   
;;;3145       default:
;;;3146         ret = BSP_ERROR_WRONG_PARAM;
000036  f06f0401          MVN      r4,#1
;;;3147         break;
00003a  bf00              NOP      
                  |L23.60|
00003c  bf00              NOP                            ;3117
;;;3148     }
;;;3149   
;;;3150     return ret;
00003e  4620              MOV      r0,r4
;;;3151   }
000040  bd70              POP      {r4-r6,pc}
;;;3152   
                          ENDP

000042  0000              DCW      0x0000
                  |L23.68|
                          DCD      MotionCompObj

                          AREA ||i.IKS01A2_MOTION_SENSOR_FIFO_Get_Pattern||, CODE, READONLY, ALIGN=2

                  IKS01A2_MOTION_SENSOR_FIFO_Get_Pattern PROC
;;;3653    */
;;;3654   int32_t IKS01A2_MOTION_SENSOR_FIFO_Get_Pattern(uint32_t Instance, uint16_t *Pattern)
000000  b570              PUSH     {r4-r6,lr}
;;;3655   {
000002  4605              MOV      r5,r0
000004  460e              MOV      r6,r1
;;;3656     int32_t ret;
;;;3657   
;;;3658     switch (Instance)
000006  b125              CBZ      r5,|L24.18|
000008  2d01              CMP      r5,#1
00000a  d00e              BEQ      |L24.42|
00000c  2d02              CMP      r5,#2
00000e  d112              BNE      |L24.54|
000010  e00e              B        |L24.48|
                  |L24.18|
;;;3659     {
;;;3660   #if (USE_IKS01A2_MOTION_SENSOR_LSM6DSL_0 == 1)
;;;3661       case IKS01A2_LSM6DSL_0:
;;;3662         if (LSM6DSL_FIFO_Get_Pattern(MotionCompObj[Instance], Pattern) != BSP_ERROR_NONE)
000012  490c              LDR      r1,|L24.68|
000014  f8510025          LDR      r0,[r1,r5,LSL #2]
000018  4631              MOV      r1,r6
00001a  f7fffffe          BL       LSM6DSL_FIFO_Get_Pattern
00001e  b110              CBZ      r0,|L24.38|
;;;3663         {
;;;3664           ret = BSP_ERROR_COMPONENT_FAILURE;
000020  f06f0404          MVN      r4,#4
000024  e000              B        |L24.40|
                  |L24.38|
;;;3665         }
;;;3666         else
;;;3667         {
;;;3668           ret = BSP_ERROR_NONE;
000026  2400              MOVS     r4,#0
                  |L24.40|
;;;3669         }
;;;3670         break;
000028  e008              B        |L24.60|
                  |L24.42|
;;;3671   #endif
;;;3672   
;;;3673   #if (USE_IKS01A2_MOTION_SENSOR_ISM330DLC_0 == 1)
;;;3674       case IKS01A2_ISM330DLC_0:
;;;3675         if (ISM330DLC_FIFO_Get_Pattern(MotionCompObj[Instance], Pattern) != BSP_ERROR_NONE)
;;;3676         {
;;;3677           ret = BSP_ERROR_COMPONENT_FAILURE;
;;;3678         }
;;;3679         else
;;;3680         {
;;;3681           ret = BSP_ERROR_NONE;
;;;3682         }
;;;3683         break;
;;;3684   #endif
;;;3685   
;;;3686   #if (USE_IKS01A2_MOTION_SENSOR_LSM303AGR_ACC_0 == 1)
;;;3687       case IKS01A2_LSM303AGR_ACC_0:
;;;3688         ret = BSP_ERROR_COMPONENT_FAILURE;
00002a  f06f0404          MVN      r4,#4
;;;3689         break;
00002e  e005              B        |L24.60|
                  |L24.48|
;;;3690   #endif
;;;3691   
;;;3692   #if (USE_IKS01A2_MOTION_SENSOR_LSM303AGR_MAG_0 == 1)
;;;3693       case IKS01A2_LSM303AGR_MAG_0:
;;;3694         ret = BSP_ERROR_COMPONENT_FAILURE;
000030  f06f0404          MVN      r4,#4
;;;3695         break;
000034  e002              B        |L24.60|
                  |L24.54|
;;;3696   #endif
;;;3697   
;;;3698       default:
;;;3699         ret = BSP_ERROR_WRONG_PARAM;
000036  f06f0401          MVN      r4,#1
;;;3700         break;
00003a  bf00              NOP      
                  |L24.60|
00003c  bf00              NOP                            ;3670
;;;3701     }
;;;3702   
;;;3703     return ret;
00003e  4620              MOV      r0,r4
;;;3704   }
000040  bd70              POP      {r4-r6,pc}
;;;3705   
                          ENDP

000042  0000              DCW      0x0000
                  |L24.68|
                          DCD      MotionCompObj

                          AREA ||i.IKS01A2_MOTION_SENSOR_FIFO_Set_Decimation||, CODE, READONLY, ALIGN=2

                  IKS01A2_MOTION_SENSOR_FIFO_Set_Decimation PROC
;;;3218    */
;;;3219   int32_t IKS01A2_MOTION_SENSOR_FIFO_Set_Decimation(uint32_t Instance, uint32_t Function, uint8_t Decimation)
000000  e92d41f0          PUSH     {r4-r8,lr}
;;;3220   {
000004  4605              MOV      r5,r0
000006  460e              MOV      r6,r1
000008  4617              MOV      r7,r2
;;;3221     int32_t ret;
;;;3222   
;;;3223     switch (Instance)
00000a  b125              CBZ      r5,|L25.22|
00000c  2d01              CMP      r5,#1
00000e  d024              BEQ      |L25.90|
000010  2d02              CMP      r5,#2
000012  d128              BNE      |L25.102|
000014  e024              B        |L25.96|
                  |L25.22|
;;;3224     {
;;;3225   #if (USE_IKS01A2_MOTION_SENSOR_LSM6DSL_0 == 1)
;;;3226       case IKS01A2_LSM6DSL_0:
;;;3227         if ((Function & MOTION_ACCELERO) == MOTION_ACCELERO)
000016  f0060002          AND      r0,r6,#2
00001a  2802              CMP      r0,#2
00001c  d10b              BNE      |L25.54|
;;;3228         {
;;;3229           if (LSM6DSL_FIFO_ACC_Set_Decimation(MotionCompObj[Instance], Decimation) != BSP_ERROR_NONE)
00001e  4915              LDR      r1,|L25.116|
000020  f8510025          LDR      r0,[r1,r5,LSL #2]
000024  4639              MOV      r1,r7
000026  f7fffffe          BL       LSM6DSL_FIFO_ACC_Set_Decimation
00002a  b110              CBZ      r0,|L25.50|
;;;3230           {
;;;3231             ret = BSP_ERROR_COMPONENT_FAILURE;
00002c  f06f0404          MVN      r4,#4
000030  e012              B        |L25.88|
                  |L25.50|
;;;3232           }
;;;3233           else
;;;3234           {
;;;3235             ret = BSP_ERROR_NONE;
000032  2400              MOVS     r4,#0
000034  e010              B        |L25.88|
                  |L25.54|
;;;3236           }
;;;3237         }
;;;3238         else if ((Function & MOTION_GYRO) == MOTION_GYRO)
000036  f0060001          AND      r0,r6,#1
00003a  b158              CBZ      r0,|L25.84|
;;;3239         {
;;;3240           if (LSM6DSL_FIFO_GYRO_Set_Decimation(MotionCompObj[Instance], Decimation) != BSP_ERROR_NONE)
00003c  490d              LDR      r1,|L25.116|
00003e  f8510025          LDR      r0,[r1,r5,LSL #2]
000042  4639              MOV      r1,r7
000044  f7fffffe          BL       LSM6DSL_FIFO_GYRO_Set_Decimation
000048  b110              CBZ      r0,|L25.80|
;;;3241           {
;;;3242             ret = BSP_ERROR_COMPONENT_FAILURE;
00004a  f06f0404          MVN      r4,#4
00004e  e003              B        |L25.88|
                  |L25.80|
;;;3243           }
;;;3244           else
;;;3245           {
;;;3246             ret = BSP_ERROR_NONE;
000050  2400              MOVS     r4,#0
000052  e001              B        |L25.88|
                  |L25.84|
;;;3247           }
;;;3248         }
;;;3249         else
;;;3250         {
;;;3251           ret = BSP_ERROR_WRONG_PARAM;
000054  f06f0401          MVN      r4,#1
                  |L25.88|
;;;3252         }
;;;3253         break;
000058  e008              B        |L25.108|
                  |L25.90|
;;;3254   #endif
;;;3255   
;;;3256   #if (USE_IKS01A2_MOTION_SENSOR_ISM330DLC_0 == 1)
;;;3257       case IKS01A2_ISM330DLC_0:
;;;3258         if ((Function & MOTION_ACCELERO) == MOTION_ACCELERO)
;;;3259         {
;;;3260           if (ISM330DLC_FIFO_ACC_Set_Decimation(MotionCompObj[Instance], Decimation) != BSP_ERROR_NONE)
;;;3261           {
;;;3262             ret = BSP_ERROR_COMPONENT_FAILURE;
;;;3263           }
;;;3264           else
;;;3265           {
;;;3266             ret = BSP_ERROR_NONE;
;;;3267           }
;;;3268         }
;;;3269         else if ((Function & MOTION_GYRO) == MOTION_GYRO)
;;;3270         {
;;;3271           if (ISM330DLC_FIFO_GYRO_Set_Decimation(MotionCompObj[Instance], Decimation) != BSP_ERROR_NONE)
;;;3272           {
;;;3273             ret = BSP_ERROR_COMPONENT_FAILURE;
;;;3274           }
;;;3275           else
;;;3276           {
;;;3277             ret = BSP_ERROR_NONE;
;;;3278           }
;;;3279         }
;;;3280         else
;;;3281         {
;;;3282           ret = BSP_ERROR_WRONG_PARAM;
;;;3283         }
;;;3284         break;
;;;3285   #endif
;;;3286   
;;;3287   #if (USE_IKS01A2_MOTION_SENSOR_LSM303AGR_ACC_0 == 1)
;;;3288       case IKS01A2_LSM303AGR_ACC_0:
;;;3289         ret = BSP_ERROR_COMPONENT_FAILURE;
00005a  f06f0404          MVN      r4,#4
;;;3290         break;
00005e  e005              B        |L25.108|
                  |L25.96|
;;;3291   #endif
;;;3292   
;;;3293   #if (USE_IKS01A2_MOTION_SENSOR_LSM303AGR_MAG_0 == 1)
;;;3294       case IKS01A2_LSM303AGR_MAG_0:
;;;3295         ret = BSP_ERROR_COMPONENT_FAILURE;
000060  f06f0404          MVN      r4,#4
;;;3296         break;
000064  e002              B        |L25.108|
                  |L25.102|
;;;3297   #endif
;;;3298   
;;;3299       default:
;;;3300         ret = BSP_ERROR_WRONG_PARAM;
000066  f06f0401          MVN      r4,#1
;;;3301         break;
00006a  bf00              NOP      
                  |L25.108|
00006c  bf00              NOP                            ;3253
;;;3302     }
;;;3303   
;;;3304     return ret;
00006e  4620              MOV      r0,r4
;;;3305   }
000070  e8bd81f0          POP      {r4-r8,pc}
;;;3306   
                          ENDP

                  |L25.116|
                          DCD      MotionCompObj

                          AREA ||i.IKS01A2_MOTION_SENSOR_FIFO_Set_INT1_FIFO_Full||, CODE, READONLY, ALIGN=2

                  IKS01A2_MOTION_SENSOR_FIFO_Set_INT1_FIFO_Full PROC
;;;3370    */
;;;3371   int32_t IKS01A2_MOTION_SENSOR_FIFO_Set_INT1_FIFO_Full(uint32_t Instance, uint8_t Status)
000000  b570              PUSH     {r4-r6,lr}
;;;3372   {
000002  4605              MOV      r5,r0
000004  460e              MOV      r6,r1
;;;3373     int32_t ret;
;;;3374   
;;;3375     switch (Instance)
000006  b125              CBZ      r5,|L26.18|
000008  2d01              CMP      r5,#1
00000a  d00e              BEQ      |L26.42|
00000c  2d02              CMP      r5,#2
00000e  d112              BNE      |L26.54|
000010  e00e              B        |L26.48|
                  |L26.18|
;;;3376     {
;;;3377   #if (USE_IKS01A2_MOTION_SENSOR_LSM6DSL_0 == 1)
;;;3378       case IKS01A2_LSM6DSL_0:
;;;3379         if (LSM6DSL_FIFO_Set_INT1_FIFO_Full(MotionCompObj[Instance], Status) != BSP_ERROR_NONE)
000012  490c              LDR      r1,|L26.68|
000014  f8510025          LDR      r0,[r1,r5,LSL #2]
000018  4631              MOV      r1,r6
00001a  f7fffffe          BL       LSM6DSL_FIFO_Set_INT1_FIFO_Full
00001e  b110              CBZ      r0,|L26.38|
;;;3380         {
;;;3381           ret = BSP_ERROR_COMPONENT_FAILURE;
000020  f06f0404          MVN      r4,#4
000024  e000              B        |L26.40|
                  |L26.38|
;;;3382         }
;;;3383         else
;;;3384         {
;;;3385           ret = BSP_ERROR_NONE;
000026  2400              MOVS     r4,#0
                  |L26.40|
;;;3386         }
;;;3387         break;
000028  e008              B        |L26.60|
                  |L26.42|
;;;3388   #endif
;;;3389   
;;;3390   #if (USE_IKS01A2_MOTION_SENSOR_ISM330DLC_0 == 1)
;;;3391       case IKS01A2_ISM330DLC_0:
;;;3392         if (ISM330DLC_FIFO_Set_INT1_FIFO_Full(MotionCompObj[Instance], Status) != BSP_ERROR_NONE)
;;;3393         {
;;;3394           ret = BSP_ERROR_COMPONENT_FAILURE;
;;;3395         }
;;;3396         else
;;;3397         {
;;;3398           ret = BSP_ERROR_NONE;
;;;3399         }
;;;3400         break;
;;;3401   #endif
;;;3402   
;;;3403   #if (USE_IKS01A2_MOTION_SENSOR_LSM303AGR_ACC_0 == 1)
;;;3404       case IKS01A2_LSM303AGR_ACC_0:
;;;3405         ret = BSP_ERROR_COMPONENT_FAILURE;
00002a  f06f0404          MVN      r4,#4
;;;3406         break;
00002e  e005              B        |L26.60|
                  |L26.48|
;;;3407   #endif
;;;3408   
;;;3409   #if (USE_IKS01A2_MOTION_SENSOR_LSM303AGR_MAG_0 == 1)
;;;3410       case IKS01A2_LSM303AGR_MAG_0:
;;;3411         ret = BSP_ERROR_COMPONENT_FAILURE;
000030  f06f0404          MVN      r4,#4
;;;3412         break;
000034  e002              B        |L26.60|
                  |L26.54|
;;;3413   #endif
;;;3414   
;;;3415       default:
;;;3416         ret = BSP_ERROR_WRONG_PARAM;
000036  f06f0401          MVN      r4,#1
;;;3417         break;
00003a  bf00              NOP      
                  |L26.60|
00003c  bf00              NOP                            ;3387
;;;3418     }
;;;3419   
;;;3420     return ret;
00003e  4620              MOV      r0,r4
;;;3421   }
000040  bd70              POP      {r4-r6,pc}
;;;3422   
                          ENDP

000042  0000              DCW      0x0000
                  |L26.68|
                          DCD      MotionCompObj

                          AREA ||i.IKS01A2_MOTION_SENSOR_FIFO_Set_INT2_FIFO_Full||, CODE, READONLY, ALIGN=1

                  IKS01A2_MOTION_SENSOR_FIFO_Set_INT2_FIFO_Full PROC
;;;3428    */
;;;3429   int32_t IKS01A2_MOTION_SENSOR_FIFO_Set_INT2_FIFO_Full(uint32_t Instance, uint8_t Status)
000000  4602              MOV      r2,r0
;;;3430   {
;;;3431     int32_t ret;
;;;3432   
;;;3433     switch (Instance)
000002  b122              CBZ      r2,|L27.14|
000004  2a01              CMP      r2,#1
000006  d005              BEQ      |L27.20|
000008  2a02              CMP      r2,#2
00000a  d109              BNE      |L27.32|
00000c  e005              B        |L27.26|
                  |L27.14|
;;;3434     {
;;;3435   #if (USE_IKS01A2_MOTION_SENSOR_LSM6DSL_0 == 1)
;;;3436       case IKS01A2_LSM6DSL_0:
;;;3437         ret = BSP_ERROR_COMPONENT_FAILURE;
00000e  f06f0004          MVN      r0,#4
;;;3438         break;
000012  e008              B        |L27.38|
                  |L27.20|
;;;3439   #endif
;;;3440   
;;;3441   #if (USE_IKS01A2_MOTION_SENSOR_ISM330DLC_0 == 1)
;;;3442       case IKS01A2_ISM330DLC_0:
;;;3443         if (ISM330DLC_FIFO_Set_INT2_FIFO_Full(MotionCompObj[Instance], Status) != BSP_ERROR_NONE)
;;;3444         {
;;;3445           ret = BSP_ERROR_COMPONENT_FAILURE;
;;;3446         }
;;;3447         else
;;;3448         {
;;;3449           ret = BSP_ERROR_NONE;
;;;3450         }
;;;3451         break;
;;;3452   #endif
;;;3453   
;;;3454   #if (USE_IKS01A2_MOTION_SENSOR_LSM303AGR_ACC_0 == 1)
;;;3455       case IKS01A2_LSM303AGR_ACC_0:
;;;3456         ret = BSP_ERROR_COMPONENT_FAILURE;
000014  f06f0004          MVN      r0,#4
;;;3457         break;
000018  e005              B        |L27.38|
                  |L27.26|
;;;3458   #endif
;;;3459   
;;;3460   #if (USE_IKS01A2_MOTION_SENSOR_LSM303AGR_MAG_0 == 1)
;;;3461       case IKS01A2_LSM303AGR_MAG_0:
;;;3462         ret = BSP_ERROR_COMPONENT_FAILURE;
00001a  f06f0004          MVN      r0,#4
;;;3463         break;
00001e  e002              B        |L27.38|
                  |L27.32|
;;;3464   #endif
;;;3465   
;;;3466       default:
;;;3467         ret = BSP_ERROR_WRONG_PARAM;
000020  f06f0001          MVN      r0,#1
;;;3468         break;
000024  bf00              NOP      
                  |L27.38|
000026  bf00              NOP                            ;3438
;;;3469     }
;;;3470   
;;;3471     return ret;
;;;3472   }
000028  4770              BX       lr
;;;3473   
                          ENDP


                          AREA ||i.IKS01A2_MOTION_SENSOR_FIFO_Set_Mode||, CODE, READONLY, ALIGN=2

                  IKS01A2_MOTION_SENSOR_FIFO_Set_Mode PROC
;;;3595    */
;;;3596   int32_t IKS01A2_MOTION_SENSOR_FIFO_Set_Mode(uint32_t Instance, uint8_t Mode)
000000  b570              PUSH     {r4-r6,lr}
;;;3597   {
000002  4605              MOV      r5,r0
000004  460e              MOV      r6,r1
;;;3598     int32_t ret;
;;;3599   
;;;3600     switch (Instance)
000006  b125              CBZ      r5,|L28.18|
000008  2d01              CMP      r5,#1
00000a  d00e              BEQ      |L28.42|
00000c  2d02              CMP      r5,#2
00000e  d112              BNE      |L28.54|
000010  e00e              B        |L28.48|
                  |L28.18|
;;;3601     {
;;;3602   #if (USE_IKS01A2_MOTION_SENSOR_LSM6DSL_0 == 1)
;;;3603       case IKS01A2_LSM6DSL_0:
;;;3604         if (LSM6DSL_FIFO_Set_Mode(MotionCompObj[Instance], Mode) != BSP_ERROR_NONE)
000012  490c              LDR      r1,|L28.68|
000014  f8510025          LDR      r0,[r1,r5,LSL #2]
000018  4631              MOV      r1,r6
00001a  f7fffffe          BL       LSM6DSL_FIFO_Set_Mode
00001e  b110              CBZ      r0,|L28.38|
;;;3605         {
;;;3606           ret = BSP_ERROR_COMPONENT_FAILURE;
000020  f06f0404          MVN      r4,#4
000024  e000              B        |L28.40|
                  |L28.38|
;;;3607         }
;;;3608         else
;;;3609         {
;;;3610           ret = BSP_ERROR_NONE;
000026  2400              MOVS     r4,#0
                  |L28.40|
;;;3611         }
;;;3612         break;
000028  e008              B        |L28.60|
                  |L28.42|
;;;3613   #endif
;;;3614   
;;;3615   #if (USE_IKS01A2_MOTION_SENSOR_ISM330DLC_0 == 1)
;;;3616       case IKS01A2_ISM330DLC_0:
;;;3617         if (ISM330DLC_FIFO_Set_Mode(MotionCompObj[Instance], Mode) != BSP_ERROR_NONE)
;;;3618         {
;;;3619           ret = BSP_ERROR_COMPONENT_FAILURE;
;;;3620         }
;;;3621         else
;;;3622         {
;;;3623           ret = BSP_ERROR_NONE;
;;;3624         }
;;;3625         break;
;;;3626   #endif
;;;3627   
;;;3628   #if (USE_IKS01A2_MOTION_SENSOR_LSM303AGR_ACC_0 == 1)
;;;3629       case IKS01A2_LSM303AGR_ACC_0:
;;;3630         ret = BSP_ERROR_COMPONENT_FAILURE;
00002a  f06f0404          MVN      r4,#4
;;;3631         break;
00002e  e005              B        |L28.60|
                  |L28.48|
;;;3632   #endif
;;;3633   
;;;3634   #if (USE_IKS01A2_MOTION_SENSOR_LSM303AGR_MAG_0 == 1)
;;;3635       case IKS01A2_LSM303AGR_MAG_0:
;;;3636         ret = BSP_ERROR_COMPONENT_FAILURE;
000030  f06f0404          MVN      r4,#4
;;;3637         break;
000034  e002              B        |L28.60|
                  |L28.54|
;;;3638   #endif
;;;3639   
;;;3640       default:
;;;3641         ret = BSP_ERROR_WRONG_PARAM;
000036  f06f0401          MVN      r4,#1
;;;3642         break;
00003a  bf00              NOP      
                  |L28.60|
00003c  bf00              NOP                            ;3612
;;;3643     }
;;;3644   
;;;3645     return ret;
00003e  4620              MOV      r0,r4
;;;3646   }
000040  bd70              POP      {r4-r6,pc}
;;;3647   
                          ENDP

000042  0000              DCW      0x0000
                  |L28.68|
                          DCD      MotionCompObj

                          AREA ||i.IKS01A2_MOTION_SENSOR_FIFO_Set_ODR_Value||, CODE, READONLY, ALIGN=2

                  IKS01A2_MOTION_SENSOR_FIFO_Set_ODR_Value PROC
;;;3312    */
;;;3313   int32_t IKS01A2_MOTION_SENSOR_FIFO_Set_ODR_Value(uint32_t Instance, float Odr)
000000  b570              PUSH     {r4-r6,lr}
;;;3314   {
000002  ed2d8b02          VPUSH    {d8}
000006  4605              MOV      r5,r0
000008  eeb08a40          VMOV.F32 s16,s0
;;;3315     int32_t ret;
;;;3316   
;;;3317     switch (Instance)
00000c  b125              CBZ      r5,|L29.24|
00000e  2d01              CMP      r5,#1
000010  d00f              BEQ      |L29.50|
000012  2d02              CMP      r5,#2
000014  d113              BNE      |L29.62|
000016  e00f              B        |L29.56|
                  |L29.24|
;;;3318     {
;;;3319   #if (USE_IKS01A2_MOTION_SENSOR_LSM6DSL_0 == 1)
;;;3320       case IKS01A2_LSM6DSL_0:
;;;3321         if (LSM6DSL_FIFO_Set_ODR_Value(MotionCompObj[Instance], Odr) != BSP_ERROR_NONE)
000018  490d              LDR      r1,|L29.80|
00001a  f8510025          LDR      r0,[r1,r5,LSL #2]
00001e  eeb00a48          VMOV.F32 s0,s16
000022  f7fffffe          BL       LSM6DSL_FIFO_Set_ODR_Value
000026  b110              CBZ      r0,|L29.46|
;;;3322         {
;;;3323           ret = BSP_ERROR_COMPONENT_FAILURE;
000028  f06f0404          MVN      r4,#4
00002c  e000              B        |L29.48|
                  |L29.46|
;;;3324         }
;;;3325         else
;;;3326         {
;;;3327           ret = BSP_ERROR_NONE;
00002e  2400              MOVS     r4,#0
                  |L29.48|
;;;3328         }
;;;3329         break;
000030  e008              B        |L29.68|
                  |L29.50|
;;;3330   #endif
;;;3331   
;;;3332   #if (USE_IKS01A2_MOTION_SENSOR_ISM330DLC_0 == 1)
;;;3333       case IKS01A2_ISM330DLC_0:
;;;3334         if (ISM330DLC_FIFO_Set_ODR_Value(MotionCompObj[Instance], Odr) != BSP_ERROR_NONE)
;;;3335         {
;;;3336           ret = BSP_ERROR_COMPONENT_FAILURE;
;;;3337         }
;;;3338         else
;;;3339         {
;;;3340           ret = BSP_ERROR_NONE;
;;;3341         }
;;;3342         break;
;;;3343   #endif
;;;3344   
;;;3345   #if (USE_IKS01A2_MOTION_SENSOR_LSM303AGR_ACC_0 == 1)
;;;3346       case IKS01A2_LSM303AGR_ACC_0:
;;;3347         ret = BSP_ERROR_COMPONENT_FAILURE;
000032  f06f0404          MVN      r4,#4
;;;3348         break;
000036  e005              B        |L29.68|
                  |L29.56|
;;;3349   #endif
;;;3350   
;;;3351   #if (USE_IKS01A2_MOTION_SENSOR_LSM303AGR_MAG_0 == 1)
;;;3352       case IKS01A2_LSM303AGR_MAG_0:
;;;3353         ret = BSP_ERROR_COMPONENT_FAILURE;
000038  f06f0404          MVN      r4,#4
;;;3354         break;
00003c  e002              B        |L29.68|
                  |L29.62|
;;;3355   #endif
;;;3356   
;;;3357       default:
;;;3358         ret = BSP_ERROR_WRONG_PARAM;
00003e  f06f0401          MVN      r4,#1
;;;3359         break;
000042  bf00              NOP      
                  |L29.68|
000044  bf00              NOP                            ;3329
;;;3360     }
;;;3361   
;;;3362     return ret;
000046  4620              MOV      r0,r4
;;;3363   }
000048  ecbd8b02          VPOP     {d8}
00004c  bd70              POP      {r4-r6,pc}
;;;3364   
                          ENDP

00004e  0000              DCW      0x0000
                  |L29.80|
                          DCD      MotionCompObj

                          AREA ||i.IKS01A2_MOTION_SENSOR_FIFO_Set_Stop_On_Fth||, CODE, READONLY, ALIGN=2

                  IKS01A2_MOTION_SENSOR_FIFO_Set_Stop_On_Fth PROC
;;;3537    */
;;;3538   int32_t IKS01A2_MOTION_SENSOR_FIFO_Set_Stop_On_Fth(uint32_t Instance, uint8_t Status)
000000  b570              PUSH     {r4-r6,lr}
;;;3539   {
000002  4605              MOV      r5,r0
000004  460e              MOV      r6,r1
;;;3540     int32_t ret;
;;;3541   
;;;3542     switch (Instance)
000006  b125              CBZ      r5,|L30.18|
000008  2d01              CMP      r5,#1
00000a  d00e              BEQ      |L30.42|
00000c  2d02              CMP      r5,#2
00000e  d112              BNE      |L30.54|
000010  e00e              B        |L30.48|
                  |L30.18|
;;;3543     {
;;;3544   #if (USE_IKS01A2_MOTION_SENSOR_LSM6DSL_0 == 1)
;;;3545       case IKS01A2_LSM6DSL_0:
;;;3546         if (LSM6DSL_FIFO_Set_Stop_On_Fth(MotionCompObj[Instance], Status) != BSP_ERROR_NONE)
000012  490c              LDR      r1,|L30.68|
000014  f8510025          LDR      r0,[r1,r5,LSL #2]
000018  4631              MOV      r1,r6
00001a  f7fffffe          BL       LSM6DSL_FIFO_Set_Stop_On_Fth
00001e  b110              CBZ      r0,|L30.38|
;;;3547         {
;;;3548           ret = BSP_ERROR_COMPONENT_FAILURE;
000020  f06f0404          MVN      r4,#4
000024  e000              B        |L30.40|
                  |L30.38|
;;;3549         }
;;;3550         else
;;;3551         {
;;;3552           ret = BSP_ERROR_NONE;
000026  2400              MOVS     r4,#0
                  |L30.40|
;;;3553         }
;;;3554         break;
000028  e008              B        |L30.60|
                  |L30.42|
;;;3555   #endif
;;;3556   
;;;3557   #if (USE_IKS01A2_MOTION_SENSOR_ISM330DLC_0 == 1)
;;;3558       case IKS01A2_ISM330DLC_0:
;;;3559         if (ISM330DLC_FIFO_Set_Stop_On_Fth(MotionCompObj[Instance], Status) != BSP_ERROR_NONE)
;;;3560         {
;;;3561           ret = BSP_ERROR_COMPONENT_FAILURE;
;;;3562         }
;;;3563         else
;;;3564         {
;;;3565           ret = BSP_ERROR_NONE;
;;;3566         }
;;;3567         break;
;;;3568   #endif
;;;3569   
;;;3570   #if (USE_IKS01A2_MOTION_SENSOR_LSM303AGR_ACC_0 == 1)
;;;3571       case IKS01A2_LSM303AGR_ACC_0:
;;;3572         ret = BSP_ERROR_COMPONENT_FAILURE;
00002a  f06f0404          MVN      r4,#4
;;;3573         break;
00002e  e005              B        |L30.60|
                  |L30.48|
;;;3574   #endif
;;;3575   
;;;3576   #if (USE_IKS01A2_MOTION_SENSOR_LSM303AGR_MAG_0 == 1)
;;;3577       case IKS01A2_LSM303AGR_MAG_0:
;;;3578         ret = BSP_ERROR_COMPONENT_FAILURE;
000030  f06f0404          MVN      r4,#4
;;;3579         break;
000034  e002              B        |L30.60|
                  |L30.54|
;;;3580   #endif
;;;3581   
;;;3582       default:
;;;3583         ret = BSP_ERROR_WRONG_PARAM;
000036  f06f0401          MVN      r4,#1
;;;3584         break;
00003a  bf00              NOP      
                  |L30.60|
00003c  bf00              NOP                            ;3554
;;;3585     }
;;;3586   
;;;3587     return ret;
00003e  4620              MOV      r0,r4
;;;3588   }
000040  bd70              POP      {r4-r6,pc}
;;;3589   
                          ENDP

000042  0000              DCW      0x0000
                  |L30.68|
                          DCD      MotionCompObj

                          AREA ||i.IKS01A2_MOTION_SENSOR_FIFO_Set_Watermark_Level||, CODE, READONLY, ALIGN=2

                  IKS01A2_MOTION_SENSOR_FIFO_Set_Watermark_Level PROC
;;;3479    */
;;;3480   int32_t IKS01A2_MOTION_SENSOR_FIFO_Set_Watermark_Level(uint32_t Instance, uint16_t Watermark)
000000  b570              PUSH     {r4-r6,lr}
;;;3481   {
000002  4605              MOV      r5,r0
000004  460e              MOV      r6,r1
;;;3482     int32_t ret;
;;;3483   
;;;3484     switch (Instance)
000006  b125              CBZ      r5,|L31.18|
000008  2d01              CMP      r5,#1
00000a  d00e              BEQ      |L31.42|
00000c  2d02              CMP      r5,#2
00000e  d112              BNE      |L31.54|
000010  e00e              B        |L31.48|
                  |L31.18|
;;;3485     {
;;;3486   #if (USE_IKS01A2_MOTION_SENSOR_LSM6DSL_0 == 1)
;;;3487       case IKS01A2_LSM6DSL_0:
;;;3488         if (LSM6DSL_FIFO_Set_Watermark_Level(MotionCompObj[Instance], Watermark) != BSP_ERROR_NONE)
000012  490c              LDR      r1,|L31.68|
000014  f8510025          LDR      r0,[r1,r5,LSL #2]
000018  4631              MOV      r1,r6
00001a  f7fffffe          BL       LSM6DSL_FIFO_Set_Watermark_Level
00001e  b110              CBZ      r0,|L31.38|
;;;3489         {
;;;3490           ret = BSP_ERROR_COMPONENT_FAILURE;
000020  f06f0404          MVN      r4,#4
000024  e000              B        |L31.40|
                  |L31.38|
;;;3491         }
;;;3492         else
;;;3493         {
;;;3494           ret = BSP_ERROR_NONE;
000026  2400              MOVS     r4,#0
                  |L31.40|
;;;3495         }
;;;3496         break;
000028  e008              B        |L31.60|
                  |L31.42|
;;;3497   #endif
;;;3498   
;;;3499   #if (USE_IKS01A2_MOTION_SENSOR_ISM330DLC_0 == 1)
;;;3500       case IKS01A2_ISM330DLC_0:
;;;3501         if (ISM330DLC_FIFO_Set_Watermark_Level(MotionCompObj[Instance], Watermark) != BSP_ERROR_NONE)
;;;3502         {
;;;3503           ret = BSP_ERROR_COMPONENT_FAILURE;
;;;3504         }
;;;3505         else
;;;3506         {
;;;3507           ret = BSP_ERROR_NONE;
;;;3508         }
;;;3509         break;
;;;3510   #endif
;;;3511   
;;;3512   #if (USE_IKS01A2_MOTION_SENSOR_LSM303AGR_ACC_0 == 1)
;;;3513       case IKS01A2_LSM303AGR_ACC_0:
;;;3514         ret = BSP_ERROR_COMPONENT_FAILURE;
00002a  f06f0404          MVN      r4,#4
;;;3515         break;
00002e  e005              B        |L31.60|
                  |L31.48|
;;;3516   #endif
;;;3517   
;;;3518   #if (USE_IKS01A2_MOTION_SENSOR_LSM303AGR_MAG_0 == 1)
;;;3519       case IKS01A2_LSM303AGR_MAG_0:
;;;3520         ret = BSP_ERROR_COMPONENT_FAILURE;
000030  f06f0404          MVN      r4,#4
;;;3521         break;
000034  e002              B        |L31.60|
                  |L31.54|
;;;3522   #endif
;;;3523   
;;;3524       default:
;;;3525         ret = BSP_ERROR_WRONG_PARAM;
000036  f06f0401          MVN      r4,#1
;;;3526         break;
00003a  bf00              NOP      
                  |L31.60|
00003c  bf00              NOP                            ;3496
;;;3527     }
;;;3528   
;;;3529     return ret;
00003e  4620              MOV      r0,r4
;;;3530   }
000040  bd70              POP      {r4-r6,pc}
;;;3531   
                          ENDP

000042  0000              DCW      0x0000
                  |L31.68|
                          DCD      MotionCompObj

                          AREA ||i.IKS01A2_MOTION_SENSOR_Get_6D_Orientation_XH||, CODE, READONLY, ALIGN=2

                  IKS01A2_MOTION_SENSOR_Get_6D_Orientation_XH PROC
;;;2359    */
;;;2360   int32_t IKS01A2_MOTION_SENSOR_Get_6D_Orientation_XH(uint32_t Instance, uint8_t *xh)
000000  b570              PUSH     {r4-r6,lr}
;;;2361   {
000002  4605              MOV      r5,r0
000004  460e              MOV      r6,r1
;;;2362     int32_t ret;
;;;2363   
;;;2364     switch (Instance)
000006  b125              CBZ      r5,|L32.18|
000008  2d01              CMP      r5,#1
00000a  d00e              BEQ      |L32.42|
00000c  2d02              CMP      r5,#2
00000e  d112              BNE      |L32.54|
000010  e00e              B        |L32.48|
                  |L32.18|
;;;2365     {
;;;2366   #if (USE_IKS01A2_MOTION_SENSOR_LSM6DSL_0 == 1)
;;;2367       case IKS01A2_LSM6DSL_0:
;;;2368         if (LSM6DSL_ACC_Get_6D_Orientation_XH(MotionCompObj[Instance], xh) != BSP_ERROR_NONE)
000012  490c              LDR      r1,|L32.68|
000014  f8510025          LDR      r0,[r1,r5,LSL #2]
000018  4631              MOV      r1,r6
00001a  f7fffffe          BL       LSM6DSL_ACC_Get_6D_Orientation_XH
00001e  b110              CBZ      r0,|L32.38|
;;;2369         {
;;;2370           ret = BSP_ERROR_COMPONENT_FAILURE;
000020  f06f0404          MVN      r4,#4
000024  e000              B        |L32.40|
                  |L32.38|
;;;2371         }
;;;2372         else
;;;2373         {
;;;2374           ret = BSP_ERROR_NONE;
000026  2400              MOVS     r4,#0
                  |L32.40|
;;;2375         }
;;;2376         break;
000028  e008              B        |L32.60|
                  |L32.42|
;;;2377   #endif
;;;2378   
;;;2379   #if (USE_IKS01A2_MOTION_SENSOR_LSM303AGR_ACC_0 == 1)
;;;2380       case IKS01A2_LSM303AGR_ACC_0:
;;;2381         ret = BSP_ERROR_COMPONENT_FAILURE;
00002a  f06f0404          MVN      r4,#4
;;;2382         break;
00002e  e005              B        |L32.60|
                  |L32.48|
;;;2383   #endif
;;;2384   
;;;2385   #if (USE_IKS01A2_MOTION_SENSOR_LSM303AGR_MAG_0 == 1)
;;;2386       case IKS01A2_LSM303AGR_MAG_0:
;;;2387         ret = BSP_ERROR_COMPONENT_FAILURE;
000030  f06f0404          MVN      r4,#4
;;;2388         break;
000034  e002              B        |L32.60|
                  |L32.54|
;;;2389   #endif
;;;2390   
;;;2391   #if (USE_IKS01A2_MOTION_SENSOR_ISM330DLC_0 == 1)
;;;2392       case IKS01A2_ISM330DLC_0:
;;;2393         if (ISM330DLC_ACC_Get_6D_Orientation_XH(MotionCompObj[Instance], xh) != BSP_ERROR_NONE)
;;;2394         {
;;;2395           ret = BSP_ERROR_COMPONENT_FAILURE;
;;;2396         }
;;;2397         else
;;;2398         {
;;;2399           ret = BSP_ERROR_NONE;
;;;2400         }
;;;2401         break;
;;;2402   #endif
;;;2403   
;;;2404       default:
;;;2405         ret = BSP_ERROR_WRONG_PARAM;
000036  f06f0401          MVN      r4,#1
;;;2406         break;
00003a  bf00              NOP      
                  |L32.60|
00003c  bf00              NOP                            ;2376
;;;2407     }
;;;2408   
;;;2409     return ret;
00003e  4620              MOV      r0,r4
;;;2410   }
000040  bd70              POP      {r4-r6,pc}
;;;2411   
                          ENDP

000042  0000              DCW      0x0000
                  |L32.68|
                          DCD      MotionCompObj

                          AREA ||i.IKS01A2_MOTION_SENSOR_Get_6D_Orientation_XL||, CODE, READONLY, ALIGN=2

                  IKS01A2_MOTION_SENSOR_Get_6D_Orientation_XL PROC
;;;2301    */
;;;2302   int32_t IKS01A2_MOTION_SENSOR_Get_6D_Orientation_XL(uint32_t Instance, uint8_t *xl)
000000  b570              PUSH     {r4-r6,lr}
;;;2303   {
000002  4605              MOV      r5,r0
000004  460e              MOV      r6,r1
;;;2304     int32_t ret;
;;;2305   
;;;2306     switch (Instance)
000006  b125              CBZ      r5,|L33.18|
000008  2d01              CMP      r5,#1
00000a  d00e              BEQ      |L33.42|
00000c  2d02              CMP      r5,#2
00000e  d112              BNE      |L33.54|
000010  e00e              B        |L33.48|
                  |L33.18|
;;;2307     {
;;;2308   #if (USE_IKS01A2_MOTION_SENSOR_LSM6DSL_0 == 1)
;;;2309       case IKS01A2_LSM6DSL_0:
;;;2310         if (LSM6DSL_ACC_Get_6D_Orientation_XL(MotionCompObj[Instance], xl) != BSP_ERROR_NONE)
000012  490c              LDR      r1,|L33.68|
000014  f8510025          LDR      r0,[r1,r5,LSL #2]
000018  4631              MOV      r1,r6
00001a  f7fffffe          BL       LSM6DSL_ACC_Get_6D_Orientation_XL
00001e  b110              CBZ      r0,|L33.38|
;;;2311         {
;;;2312           ret = BSP_ERROR_COMPONENT_FAILURE;
000020  f06f0404          MVN      r4,#4
000024  e000              B        |L33.40|
                  |L33.38|
;;;2313         }
;;;2314         else
;;;2315         {
;;;2316           ret = BSP_ERROR_NONE;
000026  2400              MOVS     r4,#0
                  |L33.40|
;;;2317         }
;;;2318         break;
000028  e008              B        |L33.60|
                  |L33.42|
;;;2319   #endif
;;;2320   
;;;2321   #if (USE_IKS01A2_MOTION_SENSOR_LSM303AGR_ACC_0 == 1)
;;;2322       case IKS01A2_LSM303AGR_ACC_0:
;;;2323         ret = BSP_ERROR_COMPONENT_FAILURE;
00002a  f06f0404          MVN      r4,#4
;;;2324         break;
00002e  e005              B        |L33.60|
                  |L33.48|
;;;2325   #endif
;;;2326   
;;;2327   #if (USE_IKS01A2_MOTION_SENSOR_LSM303AGR_MAG_0 == 1)
;;;2328       case IKS01A2_LSM303AGR_MAG_0:
;;;2329         ret = BSP_ERROR_COMPONENT_FAILURE;
000030  f06f0404          MVN      r4,#4
;;;2330         break;
000034  e002              B        |L33.60|
                  |L33.54|
;;;2331   #endif
;;;2332   
;;;2333   #if (USE_IKS01A2_MOTION_SENSOR_ISM330DLC_0 == 1)
;;;2334       case IKS01A2_ISM330DLC_0:
;;;2335         if (ISM330DLC_ACC_Get_6D_Orientation_XL(MotionCompObj[Instance], xl) != BSP_ERROR_NONE)
;;;2336         {
;;;2337           ret = BSP_ERROR_COMPONENT_FAILURE;
;;;2338         }
;;;2339         else
;;;2340         {
;;;2341           ret = BSP_ERROR_NONE;
;;;2342         }
;;;2343         break;
;;;2344   #endif
;;;2345   
;;;2346       default:
;;;2347         ret = BSP_ERROR_WRONG_PARAM;
000036  f06f0401          MVN      r4,#1
;;;2348         break;
00003a  bf00              NOP      
                  |L33.60|
00003c  bf00              NOP                            ;2318
;;;2349     }
;;;2350   
;;;2351     return ret;
00003e  4620              MOV      r0,r4
;;;2352   }
000040  bd70              POP      {r4-r6,pc}
;;;2353   
                          ENDP

000042  0000              DCW      0x0000
                  |L33.68|
                          DCD      MotionCompObj

                          AREA ||i.IKS01A2_MOTION_SENSOR_Get_6D_Orientation_YH||, CODE, READONLY, ALIGN=2

                  IKS01A2_MOTION_SENSOR_Get_6D_Orientation_YH PROC
;;;2475    */
;;;2476   int32_t IKS01A2_MOTION_SENSOR_Get_6D_Orientation_YH(uint32_t Instance, uint8_t *yh)
000000  b570              PUSH     {r4-r6,lr}
;;;2477   {
000002  4605              MOV      r5,r0
000004  460e              MOV      r6,r1
;;;2478     int32_t ret;
;;;2479   
;;;2480     switch (Instance)
000006  b125              CBZ      r5,|L34.18|
000008  2d01              CMP      r5,#1
00000a  d00e              BEQ      |L34.42|
00000c  2d02              CMP      r5,#2
00000e  d112              BNE      |L34.54|
000010  e00e              B        |L34.48|
                  |L34.18|
;;;2481     {
;;;2482   #if (USE_IKS01A2_MOTION_SENSOR_LSM6DSL_0 == 1)
;;;2483       case IKS01A2_LSM6DSL_0:
;;;2484         if (LSM6DSL_ACC_Get_6D_Orientation_YH(MotionCompObj[Instance], yh) != BSP_ERROR_NONE)
000012  490c              LDR      r1,|L34.68|
000014  f8510025          LDR      r0,[r1,r5,LSL #2]
000018  4631              MOV      r1,r6
00001a  f7fffffe          BL       LSM6DSL_ACC_Get_6D_Orientation_YH
00001e  b110              CBZ      r0,|L34.38|
;;;2485         {
;;;2486           ret = BSP_ERROR_COMPONENT_FAILURE;
000020  f06f0404          MVN      r4,#4
000024  e000              B        |L34.40|
                  |L34.38|
;;;2487         }
;;;2488         else
;;;2489         {
;;;2490           ret = BSP_ERROR_NONE;
000026  2400              MOVS     r4,#0
                  |L34.40|
;;;2491         }
;;;2492         break;
000028  e008              B        |L34.60|
                  |L34.42|
;;;2493   #endif
;;;2494   
;;;2495   #if (USE_IKS01A2_MOTION_SENSOR_LSM303AGR_ACC_0 == 1)
;;;2496       case IKS01A2_LSM303AGR_ACC_0:
;;;2497         ret = BSP_ERROR_COMPONENT_FAILURE;
00002a  f06f0404          MVN      r4,#4
;;;2498         break;
00002e  e005              B        |L34.60|
                  |L34.48|
;;;2499   #endif
;;;2500   
;;;2501   #if (USE_IKS01A2_MOTION_SENSOR_LSM303AGR_MAG_0 == 1)
;;;2502       case IKS01A2_LSM303AGR_MAG_0:
;;;2503         ret = BSP_ERROR_COMPONENT_FAILURE;
000030  f06f0404          MVN      r4,#4
;;;2504         break;
000034  e002              B        |L34.60|
                  |L34.54|
;;;2505   #endif
;;;2506   
;;;2507   #if (USE_IKS01A2_MOTION_SENSOR_ISM330DLC_0 == 1)
;;;2508       case IKS01A2_ISM330DLC_0:
;;;2509         if (ISM330DLC_ACC_Get_6D_Orientation_YH(MotionCompObj[Instance], yh) != BSP_ERROR_NONE)
;;;2510         {
;;;2511           ret = BSP_ERROR_COMPONENT_FAILURE;
;;;2512         }
;;;2513         else
;;;2514         {
;;;2515           ret = BSP_ERROR_NONE;
;;;2516         }
;;;2517         break;
;;;2518   #endif
;;;2519   
;;;2520       default:
;;;2521         ret = BSP_ERROR_WRONG_PARAM;
000036  f06f0401          MVN      r4,#1
;;;2522         break;
00003a  bf00              NOP      
                  |L34.60|
00003c  bf00              NOP                            ;2492
;;;2523     }
;;;2524   
;;;2525     return ret;
00003e  4620              MOV      r0,r4
;;;2526   }
000040  bd70              POP      {r4-r6,pc}
;;;2527   
                          ENDP

000042  0000              DCW      0x0000
                  |L34.68|
                          DCD      MotionCompObj

                          AREA ||i.IKS01A2_MOTION_SENSOR_Get_6D_Orientation_YL||, CODE, READONLY, ALIGN=2

                  IKS01A2_MOTION_SENSOR_Get_6D_Orientation_YL PROC
;;;2417    */
;;;2418   int32_t IKS01A2_MOTION_SENSOR_Get_6D_Orientation_YL(uint32_t Instance, uint8_t *yl)
000000  b570              PUSH     {r4-r6,lr}
;;;2419   {
000002  4605              MOV      r5,r0
000004  460e              MOV      r6,r1
;;;2420     int32_t ret;
;;;2421   
;;;2422     switch (Instance)
000006  b125              CBZ      r5,|L35.18|
000008  2d01              CMP      r5,#1
00000a  d00e              BEQ      |L35.42|
00000c  2d02              CMP      r5,#2
00000e  d112              BNE      |L35.54|
000010  e00e              B        |L35.48|
                  |L35.18|
;;;2423     {
;;;2424   #if (USE_IKS01A2_MOTION_SENSOR_LSM6DSL_0 == 1)
;;;2425       case IKS01A2_LSM6DSL_0:
;;;2426         if (LSM6DSL_ACC_Get_6D_Orientation_YL(MotionCompObj[Instance], yl) != BSP_ERROR_NONE)
000012  490c              LDR      r1,|L35.68|
000014  f8510025          LDR      r0,[r1,r5,LSL #2]
000018  4631              MOV      r1,r6
00001a  f7fffffe          BL       LSM6DSL_ACC_Get_6D_Orientation_YL
00001e  b110              CBZ      r0,|L35.38|
;;;2427         {
;;;2428           ret = BSP_ERROR_COMPONENT_FAILURE;
000020  f06f0404          MVN      r4,#4
000024  e000              B        |L35.40|
                  |L35.38|
;;;2429         }
;;;2430         else
;;;2431         {
;;;2432           ret = BSP_ERROR_NONE;
000026  2400              MOVS     r4,#0
                  |L35.40|
;;;2433         }
;;;2434         break;
000028  e008              B        |L35.60|
                  |L35.42|
;;;2435   #endif
;;;2436   
;;;2437   #if (USE_IKS01A2_MOTION_SENSOR_LSM303AGR_ACC_0 == 1)
;;;2438       case IKS01A2_LSM303AGR_ACC_0:
;;;2439         ret = BSP_ERROR_COMPONENT_FAILURE;
00002a  f06f0404          MVN      r4,#4
;;;2440         break;
00002e  e005              B        |L35.60|
                  |L35.48|
;;;2441   #endif
;;;2442   
;;;2443   #if (USE_IKS01A2_MOTION_SENSOR_LSM303AGR_MAG_0 == 1)
;;;2444       case IKS01A2_LSM303AGR_MAG_0:
;;;2445         ret = BSP_ERROR_COMPONENT_FAILURE;
000030  f06f0404          MVN      r4,#4
;;;2446         break;
000034  e002              B        |L35.60|
                  |L35.54|
;;;2447   #endif
;;;2448   
;;;2449   #if (USE_IKS01A2_MOTION_SENSOR_ISM330DLC_0 == 1)
;;;2450       case IKS01A2_ISM330DLC_0:
;;;2451         if (ISM330DLC_ACC_Get_6D_Orientation_YL(MotionCompObj[Instance], yl) != BSP_ERROR_NONE)
;;;2452         {
;;;2453           ret = BSP_ERROR_COMPONENT_FAILURE;
;;;2454         }
;;;2455         else
;;;2456         {
;;;2457           ret = BSP_ERROR_NONE;
;;;2458         }
;;;2459         break;
;;;2460   #endif
;;;2461   
;;;2462       default:
;;;2463         ret = BSP_ERROR_WRONG_PARAM;
000036  f06f0401          MVN      r4,#1
;;;2464         break;
00003a  bf00              NOP      
                  |L35.60|
00003c  bf00              NOP                            ;2434
;;;2465     }
;;;2466   
;;;2467     return ret;
00003e  4620              MOV      r0,r4
;;;2468   }
000040  bd70              POP      {r4-r6,pc}
;;;2469   
                          ENDP

000042  0000              DCW      0x0000
                  |L35.68|
                          DCD      MotionCompObj

                          AREA ||i.IKS01A2_MOTION_SENSOR_Get_6D_Orientation_ZH||, CODE, READONLY, ALIGN=2

                  IKS01A2_MOTION_SENSOR_Get_6D_Orientation_ZH PROC
;;;2591    */
;;;2592   int32_t IKS01A2_MOTION_SENSOR_Get_6D_Orientation_ZH(uint32_t Instance, uint8_t *zh)
000000  b570              PUSH     {r4-r6,lr}
;;;2593   {
000002  4605              MOV      r5,r0
000004  460e              MOV      r6,r1
;;;2594     int32_t ret;
;;;2595   
;;;2596     switch (Instance)
000006  b125              CBZ      r5,|L36.18|
000008  2d01              CMP      r5,#1
00000a  d00e              BEQ      |L36.42|
00000c  2d02              CMP      r5,#2
00000e  d112              BNE      |L36.54|
000010  e00e              B        |L36.48|
                  |L36.18|
;;;2597     {
;;;2598   #if (USE_IKS01A2_MOTION_SENSOR_LSM6DSL_0 == 1)
;;;2599       case IKS01A2_LSM6DSL_0:
;;;2600         if (LSM6DSL_ACC_Get_6D_Orientation_ZH(MotionCompObj[Instance], zh) != BSP_ERROR_NONE)
000012  490c              LDR      r1,|L36.68|
000014  f8510025          LDR      r0,[r1,r5,LSL #2]
000018  4631              MOV      r1,r6
00001a  f7fffffe          BL       LSM6DSL_ACC_Get_6D_Orientation_ZH
00001e  b110              CBZ      r0,|L36.38|
;;;2601         {
;;;2602           ret = BSP_ERROR_COMPONENT_FAILURE;
000020  f06f0404          MVN      r4,#4
000024  e000              B        |L36.40|
                  |L36.38|
;;;2603         }
;;;2604         else
;;;2605         {
;;;2606           ret = BSP_ERROR_NONE;
000026  2400              MOVS     r4,#0
                  |L36.40|
;;;2607         }
;;;2608         break;
000028  e008              B        |L36.60|
                  |L36.42|
;;;2609   #endif
;;;2610   
;;;2611   #if (USE_IKS01A2_MOTION_SENSOR_LSM303AGR_ACC_0 == 1)
;;;2612       case IKS01A2_LSM303AGR_ACC_0:
;;;2613         ret = BSP_ERROR_COMPONENT_FAILURE;
00002a  f06f0404          MVN      r4,#4
;;;2614         break;
00002e  e005              B        |L36.60|
                  |L36.48|
;;;2615   #endif
;;;2616   
;;;2617   #if (USE_IKS01A2_MOTION_SENSOR_LSM303AGR_MAG_0 == 1)
;;;2618       case IKS01A2_LSM303AGR_MAG_0:
;;;2619         ret = BSP_ERROR_COMPONENT_FAILURE;
000030  f06f0404          MVN      r4,#4
;;;2620         break;
000034  e002              B        |L36.60|
                  |L36.54|
;;;2621   #endif
;;;2622   
;;;2623   #if (USE_IKS01A2_MOTION_SENSOR_ISM330DLC_0 == 1)
;;;2624       case IKS01A2_ISM330DLC_0:
;;;2625         if (ISM330DLC_ACC_Get_6D_Orientation_ZH(MotionCompObj[Instance], zh) != BSP_ERROR_NONE)
;;;2626         {
;;;2627           ret = BSP_ERROR_COMPONENT_FAILURE;
;;;2628         }
;;;2629         else
;;;2630         {
;;;2631           ret = BSP_ERROR_NONE;
;;;2632         }
;;;2633         break;
;;;2634   #endif
;;;2635   
;;;2636       default:
;;;2637         ret = BSP_ERROR_WRONG_PARAM;
000036  f06f0401          MVN      r4,#1
;;;2638         break;
00003a  bf00              NOP      
                  |L36.60|
00003c  bf00              NOP                            ;2608
;;;2639     }
;;;2640   
;;;2641     return ret;
00003e  4620              MOV      r0,r4
;;;2642   }
000040  bd70              POP      {r4-r6,pc}
;;;2643   
                          ENDP

000042  0000              DCW      0x0000
                  |L36.68|
                          DCD      MotionCompObj

                          AREA ||i.IKS01A2_MOTION_SENSOR_Get_6D_Orientation_ZL||, CODE, READONLY, ALIGN=2

                  IKS01A2_MOTION_SENSOR_Get_6D_Orientation_ZL PROC
;;;2533    */
;;;2534   int32_t IKS01A2_MOTION_SENSOR_Get_6D_Orientation_ZL(uint32_t Instance, uint8_t *zl)
000000  b570              PUSH     {r4-r6,lr}
;;;2535   {
000002  4605              MOV      r5,r0
000004  460e              MOV      r6,r1
;;;2536     int32_t ret;
;;;2537   
;;;2538     switch (Instance)
000006  b125              CBZ      r5,|L37.18|
000008  2d01              CMP      r5,#1
00000a  d00e              BEQ      |L37.42|
00000c  2d02              CMP      r5,#2
00000e  d112              BNE      |L37.54|
000010  e00e              B        |L37.48|
                  |L37.18|
;;;2539     {
;;;2540   #if (USE_IKS01A2_MOTION_SENSOR_LSM6DSL_0 == 1)
;;;2541       case IKS01A2_LSM6DSL_0:
;;;2542         if (LSM6DSL_ACC_Get_6D_Orientation_ZL(MotionCompObj[Instance], zl) != BSP_ERROR_NONE)
000012  490c              LDR      r1,|L37.68|
000014  f8510025          LDR      r0,[r1,r5,LSL #2]
000018  4631              MOV      r1,r6
00001a  f7fffffe          BL       LSM6DSL_ACC_Get_6D_Orientation_ZL
00001e  b110              CBZ      r0,|L37.38|
;;;2543         {
;;;2544           ret = BSP_ERROR_COMPONENT_FAILURE;
000020  f06f0404          MVN      r4,#4
000024  e000              B        |L37.40|
                  |L37.38|
;;;2545         }
;;;2546         else
;;;2547         {
;;;2548           ret = BSP_ERROR_NONE;
000026  2400              MOVS     r4,#0
                  |L37.40|
;;;2549         }
;;;2550         break;
000028  e008              B        |L37.60|
                  |L37.42|
;;;2551   #endif
;;;2552   
;;;2553   #if (USE_IKS01A2_MOTION_SENSOR_LSM303AGR_ACC_0 == 1)
;;;2554       case IKS01A2_LSM303AGR_ACC_0:
;;;2555         ret = BSP_ERROR_COMPONENT_FAILURE;
00002a  f06f0404          MVN      r4,#4
;;;2556         break;
00002e  e005              B        |L37.60|
                  |L37.48|
;;;2557   #endif
;;;2558   
;;;2559   #if (USE_IKS01A2_MOTION_SENSOR_LSM303AGR_MAG_0 == 1)
;;;2560       case IKS01A2_LSM303AGR_MAG_0:
;;;2561         ret = BSP_ERROR_COMPONENT_FAILURE;
000030  f06f0404          MVN      r4,#4
;;;2562         break;
000034  e002              B        |L37.60|
                  |L37.54|
;;;2563   #endif
;;;2564   
;;;2565   #if (USE_IKS01A2_MOTION_SENSOR_ISM330DLC_0 == 1)
;;;2566       case IKS01A2_ISM330DLC_0:
;;;2567         if (ISM330DLC_ACC_Get_6D_Orientation_ZL(MotionCompObj[Instance], zl) != BSP_ERROR_NONE)
;;;2568         {
;;;2569           ret = BSP_ERROR_COMPONENT_FAILURE;
;;;2570         }
;;;2571         else
;;;2572         {
;;;2573           ret = BSP_ERROR_NONE;
;;;2574         }
;;;2575         break;
;;;2576   #endif
;;;2577   
;;;2578       default:
;;;2579         ret = BSP_ERROR_WRONG_PARAM;
000036  f06f0401          MVN      r4,#1
;;;2580         break;
00003a  bf00              NOP      
                  |L37.60|
00003c  bf00              NOP                            ;2550
;;;2581     }
;;;2582   
;;;2583     return ret;
00003e  4620              MOV      r0,r4
;;;2584   }
000040  bd70              POP      {r4-r6,pc}
;;;2585   
                          ENDP

000042  0000              DCW      0x0000
                  |L37.68|
                          DCD      MotionCompObj

                          AREA ||i.IKS01A2_MOTION_SENSOR_Get_DRDY_Status||, CODE, READONLY, ALIGN=2

                  IKS01A2_MOTION_SENSOR_Get_DRDY_Status PROC
;;;1946    */
;;;1947   int32_t IKS01A2_MOTION_SENSOR_Get_DRDY_Status(uint32_t Instance, uint32_t Function, uint8_t *Status)
000000  e92d41f0          PUSH     {r4-r8,lr}
;;;1948   {
000004  4605              MOV      r5,r0
000006  460e              MOV      r6,r1
000008  4617              MOV      r7,r2
;;;1949     int32_t ret;
;;;1950   
;;;1951     switch (Instance)
00000a  b125              CBZ      r5,|L38.22|
00000c  2d01              CMP      r5,#1
00000e  d024              BEQ      |L38.90|
000010  2d02              CMP      r5,#2
000012  d148              BNE      |L38.166|
000014  e034              B        |L38.128|
                  |L38.22|
;;;1952     {
;;;1953   #if (USE_IKS01A2_MOTION_SENSOR_LSM6DSL_0 == 1)
;;;1954       case IKS01A2_LSM6DSL_0:
;;;1955         if ((Function & MOTION_ACCELERO) == MOTION_ACCELERO)
000016  f0060002          AND      r0,r6,#2
00001a  2802              CMP      r0,#2
00001c  d10b              BNE      |L38.54|
;;;1956         {
;;;1957           if (LSM6DSL_ACC_Get_DRDY_Status(MotionCompObj[Instance], Status) != BSP_ERROR_NONE)
00001e  4925              LDR      r1,|L38.180|
000020  f8510025          LDR      r0,[r1,r5,LSL #2]
000024  4639              MOV      r1,r7
000026  f7fffffe          BL       LSM6DSL_ACC_Get_DRDY_Status
00002a  b110              CBZ      r0,|L38.50|
;;;1958           {
;;;1959             ret = BSP_ERROR_COMPONENT_FAILURE;
00002c  f06f0404          MVN      r4,#4
000030  e012              B        |L38.88|
                  |L38.50|
;;;1960           }
;;;1961           else
;;;1962           {
;;;1963             ret = BSP_ERROR_NONE;
000032  2400              MOVS     r4,#0
000034  e010              B        |L38.88|
                  |L38.54|
;;;1964           }
;;;1965         }
;;;1966         else if ((Function & MOTION_GYRO) == MOTION_GYRO)
000036  f0060001          AND      r0,r6,#1
00003a  b158              CBZ      r0,|L38.84|
;;;1967         {
;;;1968           if (LSM6DSL_GYRO_Get_DRDY_Status(MotionCompObj[Instance], Status) != BSP_ERROR_NONE)
00003c  491d              LDR      r1,|L38.180|
00003e  f8510025          LDR      r0,[r1,r5,LSL #2]
000042  4639              MOV      r1,r7
000044  f7fffffe          BL       LSM6DSL_GYRO_Get_DRDY_Status
000048  b110              CBZ      r0,|L38.80|
;;;1969           {
;;;1970             ret = BSP_ERROR_COMPONENT_FAILURE;
00004a  f06f0404          MVN      r4,#4
00004e  e003              B        |L38.88|
                  |L38.80|
;;;1971           }
;;;1972           else
;;;1973           {
;;;1974             ret = BSP_ERROR_NONE;
000050  2400              MOVS     r4,#0
000052  e001              B        |L38.88|
                  |L38.84|
;;;1975           }
;;;1976         }
;;;1977         else
;;;1978         {
;;;1979           ret = BSP_ERROR_COMPONENT_FAILURE;
000054  f06f0404          MVN      r4,#4
                  |L38.88|
;;;1980         }
;;;1981         break;
000058  e028              B        |L38.172|
                  |L38.90|
;;;1982   #endif
;;;1983   
;;;1984   #if (USE_IKS01A2_MOTION_SENSOR_LSM303AGR_ACC_0 == 1)
;;;1985       case IKS01A2_LSM303AGR_ACC_0:
;;;1986         if ((Function & MOTION_ACCELERO) == MOTION_ACCELERO)
00005a  f0060002          AND      r0,r6,#2
00005e  2802              CMP      r0,#2
000060  d10b              BNE      |L38.122|
;;;1987         {
;;;1988           if (LSM303AGR_ACC_Get_DRDY_Status(MotionCompObj[Instance], Status) != BSP_ERROR_NONE)
000062  4914              LDR      r1,|L38.180|
000064  f8510025          LDR      r0,[r1,r5,LSL #2]
000068  4639              MOV      r1,r7
00006a  f7fffffe          BL       LSM303AGR_ACC_Get_DRDY_Status
00006e  b110              CBZ      r0,|L38.118|
;;;1989           {
;;;1990             ret = BSP_ERROR_COMPONENT_FAILURE;
000070  f06f0404          MVN      r4,#4
000074  e003              B        |L38.126|
                  |L38.118|
;;;1991           }
;;;1992           else
;;;1993           {
;;;1994             ret = BSP_ERROR_NONE;
000076  2400              MOVS     r4,#0
000078  e001              B        |L38.126|
                  |L38.122|
;;;1995           }
;;;1996         }
;;;1997         else
;;;1998         {
;;;1999           ret = BSP_ERROR_COMPONENT_FAILURE;
00007a  f06f0404          MVN      r4,#4
                  |L38.126|
;;;2000         }
;;;2001         break;
00007e  e015              B        |L38.172|
                  |L38.128|
;;;2002   #endif
;;;2003   
;;;2004   #if (USE_IKS01A2_MOTION_SENSOR_LSM303AGR_MAG_0 == 1)
;;;2005       case IKS01A2_LSM303AGR_MAG_0:
;;;2006         if ((Function & MOTION_MAGNETO) == MOTION_MAGNETO)
000080  f0060004          AND      r0,r6,#4
000084  2804              CMP      r0,#4
000086  d10b              BNE      |L38.160|
;;;2007         {
;;;2008           if (LSM303AGR_MAG_Get_DRDY_Status(MotionCompObj[Instance], Status) != BSP_ERROR_NONE)
000088  490a              LDR      r1,|L38.180|
00008a  f8510025          LDR      r0,[r1,r5,LSL #2]
00008e  4639              MOV      r1,r7
000090  f7fffffe          BL       LSM303AGR_MAG_Get_DRDY_Status
000094  b110              CBZ      r0,|L38.156|
;;;2009           {
;;;2010             ret = BSP_ERROR_COMPONENT_FAILURE;
000096  f06f0404          MVN      r4,#4
00009a  e003              B        |L38.164|
                  |L38.156|
;;;2011           }
;;;2012           else
;;;2013           {
;;;2014             ret = BSP_ERROR_NONE;
00009c  2400              MOVS     r4,#0
00009e  e001              B        |L38.164|
                  |L38.160|
;;;2015           }
;;;2016         }
;;;2017         else
;;;2018         {
;;;2019           ret = BSP_ERROR_COMPONENT_FAILURE;
0000a0  f06f0404          MVN      r4,#4
                  |L38.164|
;;;2020         }
;;;2021         break;
0000a4  e002              B        |L38.172|
                  |L38.166|
;;;2022   #endif
;;;2023   
;;;2024   #if (USE_IKS01A2_MOTION_SENSOR_ASM330LHH_0 == 1)
;;;2025       case IKS01A2_ASM330LHH_0:
;;;2026         if ((Function & MOTION_ACCELERO) == MOTION_ACCELERO)
;;;2027         {
;;;2028           if (ASM330LHH_ACC_Get_DRDY_Status(MotionCompObj[Instance], Status) != BSP_ERROR_NONE)
;;;2029           {
;;;2030             ret = BSP_ERROR_COMPONENT_FAILURE;
;;;2031           }
;;;2032           else
;;;2033           {
;;;2034             ret = BSP_ERROR_NONE;
;;;2035           }
;;;2036         }
;;;2037         else if ((Function & MOTION_GYRO) == MOTION_GYRO)
;;;2038         {
;;;2039           if (ASM330LHH_GYRO_Get_DRDY_Status(MotionCompObj[Instance], Status) != BSP_ERROR_NONE)
;;;2040           {
;;;2041             ret = BSP_ERROR_COMPONENT_FAILURE;
;;;2042           }
;;;2043           else
;;;2044           {
;;;2045             ret = BSP_ERROR_NONE;
;;;2046           }
;;;2047         }
;;;2048         else
;;;2049         {
;;;2050           ret = BSP_ERROR_COMPONENT_FAILURE;
;;;2051         }
;;;2052         break;
;;;2053   #endif
;;;2054   
;;;2055   #if (USE_IKS01A2_MOTION_SENSOR_IIS2DLPC_0 == 1)
;;;2056       case IKS01A2_IIS2DLPC_0:
;;;2057         if ((Function & MOTION_ACCELERO) == MOTION_ACCELERO)
;;;2058         {
;;;2059           if (IIS2DLPC_ACC_Get_DRDY_Status(MotionCompObj[Instance], Status) != BSP_ERROR_NONE)
;;;2060           {
;;;2061             ret = BSP_ERROR_COMPONENT_FAILURE;
;;;2062           }
;;;2063           else
;;;2064           {
;;;2065             ret = BSP_ERROR_NONE;
;;;2066           }
;;;2067         }
;;;2068         else
;;;2069         {
;;;2070           ret = BSP_ERROR_COMPONENT_FAILURE;
;;;2071         }
;;;2072         break;
;;;2073   #endif
;;;2074   
;;;2075   #if (USE_IKS01A2_MOTION_SENSOR_IIS2MDC_0 == 1)
;;;2076       case IKS01A2_IIS2MDC_0:
;;;2077         if ((Function & MOTION_MAGNETO) == MOTION_MAGNETO)
;;;2078         {
;;;2079           if (IIS2MDC_MAG_Get_DRDY_Status(MotionCompObj[Instance], Status) != BSP_ERROR_NONE)
;;;2080           {
;;;2081             ret = BSP_ERROR_COMPONENT_FAILURE;
;;;2082           }
;;;2083           else
;;;2084           {
;;;2085             ret = BSP_ERROR_NONE;
;;;2086           }
;;;2087         }
;;;2088         else
;;;2089         {
;;;2090           ret = BSP_ERROR_COMPONENT_FAILURE;
;;;2091         }
;;;2092         break;
;;;2093   #endif
;;;2094   
;;;2095   #if (USE_IKS01A2_MOTION_SENSOR_ISM303DAC_ACC_0 == 1)
;;;2096       case IKS01A2_ISM303DAC_ACC_0:
;;;2097         if ((Function & MOTION_ACCELERO) == MOTION_ACCELERO)
;;;2098         {
;;;2099           if (ISM303DAC_ACC_Get_DRDY_Status(MotionCompObj[Instance], Status) != BSP_ERROR_NONE)
;;;2100           {
;;;2101             ret = BSP_ERROR_COMPONENT_FAILURE;
;;;2102           }
;;;2103           else
;;;2104           {
;;;2105             ret = BSP_ERROR_NONE;
;;;2106           }
;;;2107         }
;;;2108         else
;;;2109         {
;;;2110           ret = BSP_ERROR_COMPONENT_FAILURE;
;;;2111         }
;;;2112         break;
;;;2113   #endif
;;;2114   
;;;2115   #if (USE_IKS01A2_MOTION_SENSOR_ISM303DAC_MAG_0 == 1)
;;;2116       case IKS01A2_ISM303DAC_MAG_0:
;;;2117         if ((Function & MOTION_MAGNETO) == MOTION_MAGNETO)
;;;2118         {
;;;2119           if (ISM303DAC_MAG_Get_DRDY_Status(MotionCompObj[Instance], Status) != BSP_ERROR_NONE)
;;;2120           {
;;;2121             ret = BSP_ERROR_COMPONENT_FAILURE;
;;;2122           }
;;;2123           else
;;;2124           {
;;;2125             ret = BSP_ERROR_NONE;
;;;2126           }
;;;2127         }
;;;2128         else
;;;2129         {
;;;2130           ret = BSP_ERROR_COMPONENT_FAILURE;
;;;2131         }
;;;2132         break;
;;;2133   #endif
;;;2134   
;;;2135   #if (USE_IKS01A2_MOTION_SENSOR_ISM330DLC_0 == 1)
;;;2136       case IKS01A2_ISM330DLC_0:
;;;2137         if ((Function & MOTION_ACCELERO) == MOTION_ACCELERO)
;;;2138         {
;;;2139           if (ISM330DLC_ACC_Get_DRDY_Status(MotionCompObj[Instance], Status) != BSP_ERROR_NONE)
;;;2140           {
;;;2141             ret = BSP_ERROR_COMPONENT_FAILURE;
;;;2142           }
;;;2143           else
;;;2144           {
;;;2145             ret = BSP_ERROR_NONE;
;;;2146           }
;;;2147         }
;;;2148         else if ((Function & MOTION_GYRO) == MOTION_GYRO)
;;;2149         {
;;;2150           if (ISM330DLC_GYRO_Get_DRDY_Status(MotionCompObj[Instance], Status) != BSP_ERROR_NONE)
;;;2151           {
;;;2152             ret = BSP_ERROR_COMPONENT_FAILURE;
;;;2153           }
;;;2154           else
;;;2155           {
;;;2156             ret = BSP_ERROR_NONE;
;;;2157           }
;;;2158         }
;;;2159         else
;;;2160         {
;;;2161           ret = BSP_ERROR_COMPONENT_FAILURE;
;;;2162         }
;;;2163         break;
;;;2164   #endif
;;;2165   
;;;2166   #if (USE_IKS01A2_MOTION_SENSOR_LIS2DH12_0 == 1)
;;;2167       case IKS01A2_LIS2DH12_0:
;;;2168         if ((Function & MOTION_ACCELERO) == MOTION_ACCELERO)
;;;2169         {
;;;2170           if (LIS2DH12_Get_DRDY_Status(MotionCompObj[Instance], Status) != BSP_ERROR_NONE)
;;;2171           {
;;;2172             ret = BSP_ERROR_COMPONENT_FAILURE;
;;;2173           }
;;;2174           else
;;;2175           {
;;;2176             ret = BSP_ERROR_NONE;
;;;2177           }
;;;2178         }
;;;2179         else
;;;2180         {
;;;2181           ret = BSP_ERROR_COMPONENT_FAILURE;
;;;2182         }
;;;2183         break;
;;;2184   #endif
;;;2185   
;;;2186   #if (USE_IKS01A2_MOTION_SENSOR_LIS2DW12_0 == 1)
;;;2187       case IKS01A2_LIS2DW12_0:
;;;2188         if ((Function & MOTION_ACCELERO) == MOTION_ACCELERO)
;;;2189         {
;;;2190           if (LIS2DW12_ACC_Get_DRDY_Status(MotionCompObj[Instance], Status) != BSP_ERROR_NONE)
;;;2191           {
;;;2192             ret = BSP_ERROR_COMPONENT_FAILURE;
;;;2193           }
;;;2194           else
;;;2195           {
;;;2196             ret = BSP_ERROR_NONE;
;;;2197           }
;;;2198         }
;;;2199         else
;;;2200         {
;;;2201           ret = BSP_ERROR_COMPONENT_FAILURE;
;;;2202         }
;;;2203         break;
;;;2204   #endif
;;;2205   
;;;2206   #if (USE_IKS01A2_MOTION_SENSOR_LIS2MDL_0 == 1)
;;;2207       case IKS01A2_LIS2MDL_0:
;;;2208         if ((Function & MOTION_MAGNETO) == MOTION_MAGNETO)
;;;2209         {
;;;2210           if (LIS2MDL_MAG_Get_DRDY_Status(MotionCompObj[Instance], Status) != BSP_ERROR_NONE)
;;;2211           {
;;;2212             ret = BSP_ERROR_COMPONENT_FAILURE;
;;;2213           }
;;;2214           else
;;;2215           {
;;;2216             ret = BSP_ERROR_NONE;
;;;2217           }
;;;2218         }
;;;2219         else
;;;2220         {
;;;2221           ret = BSP_ERROR_COMPONENT_FAILURE;
;;;2222         }
;;;2223         break;
;;;2224   #endif
;;;2225   
;;;2226   #if (USE_IKS01A2_MOTION_SENSOR_LSM6DSO_0 == 1)
;;;2227       case IKS01A2_LSM6DSO_0:
;;;2228         if ((Function & MOTION_ACCELERO) == MOTION_ACCELERO)
;;;2229         {
;;;2230           if (LSM6DSO_ACC_Get_DRDY_Status(MotionCompObj[Instance], Status) != BSP_ERROR_NONE)
;;;2231           {
;;;2232             ret = BSP_ERROR_COMPONENT_FAILURE;
;;;2233           }
;;;2234           else
;;;2235           {
;;;2236             ret = BSP_ERROR_NONE;
;;;2237           }
;;;2238         }
;;;2239         else if ((Function & MOTION_GYRO) == MOTION_GYRO)
;;;2240         {
;;;2241           if (LSM6DSO_GYRO_Get_DRDY_Status(MotionCompObj[Instance], Status) != BSP_ERROR_NONE)
;;;2242           {
;;;2243             ret = BSP_ERROR_COMPONENT_FAILURE;
;;;2244           }
;;;2245           else
;;;2246           {
;;;2247             ret = BSP_ERROR_NONE;
;;;2248           }
;;;2249         }
;;;2250         else
;;;2251         {
;;;2252           ret = BSP_ERROR_COMPONENT_FAILURE;
;;;2253         }
;;;2254         break;
;;;2255   #endif
;;;2256   
;;;2257   #if (USE_IKS01A2_MOTION_SENSOR_LSM6DSOX_0 == 1)
;;;2258       case IKS01A2_LSM6DSOX_0:
;;;2259         if ((Function & MOTION_ACCELERO) == MOTION_ACCELERO)
;;;2260         {
;;;2261           if (LSM6DSOX_ACC_Get_DRDY_Status(MotionCompObj[Instance], Status) != BSP_ERROR_NONE)
;;;2262           {
;;;2263             ret = BSP_ERROR_COMPONENT_FAILURE;
;;;2264           }
;;;2265           else
;;;2266           {
;;;2267             ret = BSP_ERROR_NONE;
;;;2268           }
;;;2269         }
;;;2270         else if ((Function & MOTION_GYRO) == MOTION_GYRO)
;;;2271         {
;;;2272           if (LSM6DSOX_GYRO_Get_DRDY_Status(MotionCompObj[Instance], Status) != BSP_ERROR_NONE)
;;;2273           {
;;;2274             ret = BSP_ERROR_COMPONENT_FAILURE;
;;;2275           }
;;;2276           else
;;;2277           {
;;;2278             ret = BSP_ERROR_NONE;
;;;2279           }
;;;2280         }
;;;2281         else
;;;2282         {
;;;2283           ret = BSP_ERROR_COMPONENT_FAILURE;
;;;2284         }
;;;2285         break;
;;;2286   #endif
;;;2287   
;;;2288       default:
;;;2289         ret = BSP_ERROR_WRONG_PARAM;
0000a6  f06f0401          MVN      r4,#1
;;;2290         break;
0000aa  bf00              NOP      
                  |L38.172|
0000ac  bf00              NOP                            ;1981
;;;2291     }
;;;2292   
;;;2293     return ret;
0000ae  4620              MOV      r0,r4
;;;2294   }
0000b0  e8bd81f0          POP      {r4-r8,pc}
;;;2295   
                          ENDP

                  |L38.180|
                          DCD      MotionCompObj

                          AREA ||i.IKS01A2_MOTION_SENSOR_Get_Event_Status||, CODE, READONLY, ALIGN=2

                  IKS01A2_MOTION_SENSOR_Get_Event_Status PROC
;;;1882    */
;;;1883   int32_t IKS01A2_MOTION_SENSOR_Get_Event_Status(uint32_t Instance, IKS01A2_MOTION_SENSOR_Event_Status_t *Status)
000000  b570              PUSH     {r4-r6,lr}
;;;1884   {
000002  4605              MOV      r5,r0
000004  460e              MOV      r6,r1
;;;1885     int32_t ret;
;;;1886   
;;;1887     switch (Instance)
000006  b125              CBZ      r5,|L39.18|
000008  2d01              CMP      r5,#1
00000a  d00e              BEQ      |L39.42|
00000c  2d02              CMP      r5,#2
00000e  d112              BNE      |L39.54|
000010  e00e              B        |L39.48|
                  |L39.18|
;;;1888     {
;;;1889   #if (USE_IKS01A2_MOTION_SENSOR_LSM6DSL_0 == 1)
;;;1890       case IKS01A2_LSM6DSL_0:
;;;1891         /* The second cast (void *) is added to bypass Misra R11.3 rule */
;;;1892         if (LSM6DSL_ACC_Get_Event_Status(MotionCompObj[Instance], (LSM6DSL_Event_Status_t *)(void *)Status) != BSP_ERROR_NONE)
000012  490c              LDR      r1,|L39.68|
000014  f8510025          LDR      r0,[r1,r5,LSL #2]
000018  4631              MOV      r1,r6
00001a  f7fffffe          BL       LSM6DSL_ACC_Get_Event_Status
00001e  b110              CBZ      r0,|L39.38|
;;;1893         {
;;;1894           ret = BSP_ERROR_COMPONENT_FAILURE;
000020  f06f0404          MVN      r4,#4
000024  e000              B        |L39.40|
                  |L39.38|
;;;1895         }
;;;1896         else
;;;1897         {
;;;1898           ret = BSP_ERROR_NONE;
000026  2400              MOVS     r4,#0
                  |L39.40|
;;;1899         }
;;;1900         break;
000028  e008              B        |L39.60|
                  |L39.42|
;;;1901   #endif
;;;1902   
;;;1903   #if (USE_IKS01A2_MOTION_SENSOR_LSM303AGR_ACC_0 == 1)
;;;1904       case IKS01A2_LSM303AGR_ACC_0:
;;;1905         ret = BSP_ERROR_COMPONENT_FAILURE;
00002a  f06f0404          MVN      r4,#4
;;;1906         break;
00002e  e005              B        |L39.60|
                  |L39.48|
;;;1907   #endif
;;;1908   
;;;1909   #if (USE_IKS01A2_MOTION_SENSOR_LSM303AGR_MAG_0 == 1)
;;;1910       case IKS01A2_LSM303AGR_MAG_0:
;;;1911         ret = BSP_ERROR_COMPONENT_FAILURE;
000030  f06f0404          MVN      r4,#4
;;;1912         break;
000034  e002              B        |L39.60|
                  |L39.54|
;;;1913   #endif
;;;1914   
;;;1915   #if (USE_IKS01A2_MOTION_SENSOR_ISM330DLC_0 == 1)
;;;1916       case IKS01A2_ISM330DLC_0:
;;;1917         /* The second cast (void *) is added to bypass Misra R11.3 rule */
;;;1918         if (ISM330DLC_ACC_Get_Event_Status(MotionCompObj[Instance], (ISM330DLC_Event_Status_t *)(void *)Status) != BSP_ERROR_NONE)
;;;1919         {
;;;1920           ret = BSP_ERROR_COMPONENT_FAILURE;
;;;1921         }
;;;1922         else
;;;1923         {
;;;1924           ret = BSP_ERROR_NONE;
;;;1925         }
;;;1926         break;
;;;1927   #endif
;;;1928   
;;;1929       default:
;;;1930         ret = BSP_ERROR_WRONG_PARAM;
000036  f06f0401          MVN      r4,#1
;;;1931         break;
00003a  bf00              NOP      
                  |L39.60|
00003c  bf00              NOP                            ;1900
;;;1932     }
;;;1933   
;;;1934     return ret;
00003e  4620              MOV      r0,r4
;;;1935   }
000040  bd70              POP      {r4-r6,pc}
;;;1936   
                          ENDP

000042  0000              DCW      0x0000
                  |L39.68|
                          DCD      MotionCompObj

                          AREA ||i.IKS01A2_MOTION_SENSOR_Get_Step_Count||, CODE, READONLY, ALIGN=2

                  IKS01A2_MOTION_SENSOR_Get_Step_Count PROC
;;;2649    */
;;;2650   int32_t IKS01A2_MOTION_SENSOR_Get_Step_Count(uint32_t Instance, uint16_t *StepCount)
000000  b570              PUSH     {r4-r6,lr}
;;;2651   {
000002  4605              MOV      r5,r0
000004  460e              MOV      r6,r1
;;;2652     int32_t ret;
;;;2653   
;;;2654     switch (Instance)
000006  b125              CBZ      r5,|L40.18|
000008  2d01              CMP      r5,#1
00000a  d00e              BEQ      |L40.42|
00000c  2d02              CMP      r5,#2
00000e  d112              BNE      |L40.54|
000010  e00e              B        |L40.48|
                  |L40.18|
;;;2655     {
;;;2656   #if (USE_IKS01A2_MOTION_SENSOR_LSM6DSL_0 == 1)
;;;2657       case IKS01A2_LSM6DSL_0:
;;;2658         if (LSM6DSL_ACC_Get_Step_Count(MotionCompObj[Instance], StepCount) != BSP_ERROR_NONE)
000012  490c              LDR      r1,|L40.68|
000014  f8510025          LDR      r0,[r1,r5,LSL #2]
000018  4631              MOV      r1,r6
00001a  f7fffffe          BL       LSM6DSL_ACC_Get_Step_Count
00001e  b110              CBZ      r0,|L40.38|
;;;2659         {
;;;2660           ret = BSP_ERROR_COMPONENT_FAILURE;
000020  f06f0404          MVN      r4,#4
000024  e000              B        |L40.40|
                  |L40.38|
;;;2661         }
;;;2662         else
;;;2663         {
;;;2664           ret = BSP_ERROR_NONE;
000026  2400              MOVS     r4,#0
                  |L40.40|
;;;2665         }
;;;2666         break;
000028  e008              B        |L40.60|
                  |L40.42|
;;;2667   #endif
;;;2668   
;;;2669   #if (USE_IKS01A2_MOTION_SENSOR_LSM303AGR_ACC_0 == 1)
;;;2670       case IKS01A2_LSM303AGR_ACC_0:
;;;2671         ret = BSP_ERROR_COMPONENT_FAILURE;
00002a  f06f0404          MVN      r4,#4
;;;2672         break;
00002e  e005              B        |L40.60|
                  |L40.48|
;;;2673   #endif
;;;2674   
;;;2675   #if (USE_IKS01A2_MOTION_SENSOR_LSM303AGR_MAG_0 == 1)
;;;2676       case IKS01A2_LSM303AGR_MAG_0:
;;;2677         ret = BSP_ERROR_COMPONENT_FAILURE;
000030  f06f0404          MVN      r4,#4
;;;2678         break;
000034  e002              B        |L40.60|
                  |L40.54|
;;;2679   #endif
;;;2680   
;;;2681       default:
;;;2682         ret = BSP_ERROR_WRONG_PARAM;
000036  f06f0401          MVN      r4,#1
;;;2683         break;
00003a  bf00              NOP      
                  |L40.60|
00003c  bf00              NOP                            ;2666
;;;2684     }
;;;2685   
;;;2686     return ret;
00003e  4620              MOV      r0,r4
;;;2687   }
000040  bd70              POP      {r4-r6,pc}
;;;2688   
                          ENDP

000042  0000              DCW      0x0000
                  |L40.68|
                          DCD      MotionCompObj

                          AREA ||i.IKS01A2_MOTION_SENSOR_Read_Register||, CODE, READONLY, ALIGN=2

                  IKS01A2_MOTION_SENSOR_Read_Register PROC
;;;2695    */
;;;2696   int32_t IKS01A2_MOTION_SENSOR_Read_Register(uint32_t Instance, uint8_t Reg, uint8_t *Data)
000000  e92d41f0          PUSH     {r4-r8,lr}
;;;2697   {
000004  4605              MOV      r5,r0
000006  460e              MOV      r6,r1
000008  4617              MOV      r7,r2
;;;2698     int32_t ret;
;;;2699   
;;;2700     switch (Instance)
00000a  b125              CBZ      r5,|L41.22|
00000c  2d01              CMP      r5,#1
00000e  d00f              BEQ      |L41.48|
000010  2d02              CMP      r5,#2
000012  d127              BNE      |L41.100|
000014  e019              B        |L41.74|
                  |L41.22|
;;;2701     {
;;;2702   #if (USE_IKS01A2_MOTION_SENSOR_LSM6DSL_0 == 1)
;;;2703       case IKS01A2_LSM6DSL_0:
;;;2704         if (LSM6DSL_Read_Reg(MotionCompObj[Instance], Reg, Data) != BSP_ERROR_NONE)
000016  4917              LDR      r1,|L41.116|
000018  f8510025          LDR      r0,[r1,r5,LSL #2]
00001c  463a              MOV      r2,r7
00001e  4631              MOV      r1,r6
000020  f7fffffe          BL       LSM6DSL_Read_Reg
000024  b110              CBZ      r0,|L41.44|
;;;2705         {
;;;2706           ret = BSP_ERROR_COMPONENT_FAILURE;
000026  f06f0404          MVN      r4,#4
00002a  e000              B        |L41.46|
                  |L41.44|
;;;2707         }
;;;2708         else
;;;2709         {
;;;2710           ret = BSP_ERROR_NONE;
00002c  2400              MOVS     r4,#0
                  |L41.46|
;;;2711         }
;;;2712         break;
00002e  e01c              B        |L41.106|
                  |L41.48|
;;;2713   #endif
;;;2714   
;;;2715   #if (USE_IKS01A2_MOTION_SENSOR_LSM303AGR_ACC_0 == 1)
;;;2716       case IKS01A2_LSM303AGR_ACC_0:
;;;2717         if (LSM303AGR_ACC_Read_Reg(MotionCompObj[Instance], Reg, Data) != BSP_ERROR_NONE)
000030  4910              LDR      r1,|L41.116|
000032  f8510025          LDR      r0,[r1,r5,LSL #2]
000036  463a              MOV      r2,r7
000038  4631              MOV      r1,r6
00003a  f7fffffe          BL       LSM303AGR_ACC_Read_Reg
00003e  b110              CBZ      r0,|L41.70|
;;;2718         {
;;;2719           ret = BSP_ERROR_COMPONENT_FAILURE;
000040  f06f0404          MVN      r4,#4
000044  e000              B        |L41.72|
                  |L41.70|
;;;2720         }
;;;2721         else
;;;2722         {
;;;2723           ret = BSP_ERROR_NONE;
000046  2400              MOVS     r4,#0
                  |L41.72|
;;;2724         }
;;;2725         break;
000048  e00f              B        |L41.106|
                  |L41.74|
;;;2726   #endif
;;;2727   
;;;2728   #if (USE_IKS01A2_MOTION_SENSOR_LSM303AGR_MAG_0 == 1)
;;;2729       case IKS01A2_LSM303AGR_MAG_0:
;;;2730         if (LSM303AGR_MAG_Read_Reg(MotionCompObj[Instance], Reg, Data) != BSP_ERROR_NONE)
00004a  490a              LDR      r1,|L41.116|
00004c  f8510025          LDR      r0,[r1,r5,LSL #2]
000050  463a              MOV      r2,r7
000052  4631              MOV      r1,r6
000054  f7fffffe          BL       LSM303AGR_MAG_Read_Reg
000058  b110              CBZ      r0,|L41.96|
;;;2731         {
;;;2732           ret = BSP_ERROR_COMPONENT_FAILURE;
00005a  f06f0404          MVN      r4,#4
00005e  e000              B        |L41.98|
                  |L41.96|
;;;2733         }
;;;2734         else
;;;2735         {
;;;2736           ret = BSP_ERROR_NONE;
000060  2400              MOVS     r4,#0
                  |L41.98|
;;;2737         }
;;;2738         break;
000062  e002              B        |L41.106|
                  |L41.100|
;;;2739   #endif
;;;2740   
;;;2741   #if (USE_IKS01A2_MOTION_SENSOR_ASM330LHH_0 == 1)
;;;2742       case IKS01A2_ASM330LHH_0:
;;;2743         if (ASM330LHH_Read_Reg(MotionCompObj[Instance], Reg, Data) != BSP_ERROR_NONE)
;;;2744         {
;;;2745           ret = BSP_ERROR_COMPONENT_FAILURE;
;;;2746         }
;;;2747         else
;;;2748         {
;;;2749           ret = BSP_ERROR_NONE;
;;;2750         }
;;;2751         break;
;;;2752   #endif
;;;2753   
;;;2754   #if (USE_IKS01A2_MOTION_SENSOR_IIS2DLPC_0 == 1)
;;;2755       case IKS01A2_IIS2DLPC_0:
;;;2756         if (IIS2DLPC_Read_Reg(MotionCompObj[Instance], Reg, Data) != BSP_ERROR_NONE)
;;;2757         {
;;;2758           ret = BSP_ERROR_COMPONENT_FAILURE;
;;;2759         }
;;;2760         else
;;;2761         {
;;;2762           ret = BSP_ERROR_NONE;
;;;2763         }
;;;2764         break;
;;;2765   #endif
;;;2766   
;;;2767   #if (USE_IKS01A2_MOTION_SENSOR_IIS2MDC_0 == 1)
;;;2768       case IKS01A2_IIS2MDC_0:
;;;2769         if (IIS2MDC_Read_Reg(MotionCompObj[Instance], Reg, Data) != BSP_ERROR_NONE)
;;;2770         {
;;;2771           ret = BSP_ERROR_COMPONENT_FAILURE;
;;;2772         }
;;;2773         else
;;;2774         {
;;;2775           ret = BSP_ERROR_NONE;
;;;2776         }
;;;2777         break;
;;;2778   #endif
;;;2779   
;;;2780   #if (USE_IKS01A2_MOTION_SENSOR_ISM303DAC_ACC_0 == 1)
;;;2781       case IKS01A2_ISM303DAC_ACC_0:
;;;2782         if (ISM303DAC_ACC_Read_Reg(MotionCompObj[Instance], Reg, Data) != BSP_ERROR_NONE)
;;;2783         {
;;;2784           ret = BSP_ERROR_COMPONENT_FAILURE;
;;;2785         }
;;;2786         else
;;;2787         {
;;;2788           ret = BSP_ERROR_NONE;
;;;2789         }
;;;2790         break;
;;;2791   #endif
;;;2792   
;;;2793   #if (USE_IKS01A2_MOTION_SENSOR_ISM303DAC_MAG_0 == 1)
;;;2794       case IKS01A2_ISM303DAC_MAG_0:
;;;2795         if (ISM303DAC_MAG_Read_Reg(MotionCompObj[Instance], Reg, Data) != BSP_ERROR_NONE)
;;;2796         {
;;;2797           ret = BSP_ERROR_COMPONENT_FAILURE;
;;;2798         }
;;;2799         else
;;;2800         {
;;;2801           ret = BSP_ERROR_NONE;
;;;2802         }
;;;2803         break;
;;;2804   #endif
;;;2805   
;;;2806   #if (USE_IKS01A2_MOTION_SENSOR_ISM330DLC_0 == 1)
;;;2807       case IKS01A2_ISM330DLC_0:
;;;2808         if (ISM330DLC_Read_Reg(MotionCompObj[Instance], Reg, Data) != BSP_ERROR_NONE)
;;;2809         {
;;;2810           ret = BSP_ERROR_COMPONENT_FAILURE;
;;;2811         }
;;;2812         else
;;;2813         {
;;;2814           ret = BSP_ERROR_NONE;
;;;2815         }
;;;2816         break;
;;;2817   #endif
;;;2818   
;;;2819   #if (USE_IKS01A2_MOTION_SENSOR_LIS2DH12_0 == 1)
;;;2820       case IKS01A2_LIS2DH12_0:
;;;2821         if (LIS2DH12_Read_Reg(MotionCompObj[Instance], Reg, Data) != BSP_ERROR_NONE)
;;;2822         {
;;;2823           ret = BSP_ERROR_COMPONENT_FAILURE;
;;;2824         }
;;;2825         else
;;;2826         {
;;;2827           ret = BSP_ERROR_NONE;
;;;2828         }
;;;2829         break;
;;;2830   #endif
;;;2831   
;;;2832   #if (USE_IKS01A2_MOTION_SENSOR_LIS2DW12_0 == 1)
;;;2833       case IKS01A2_LIS2DW12_0:
;;;2834         if (LIS2DW12_Read_Reg(MotionCompObj[Instance], Reg, Data) != BSP_ERROR_NONE)
;;;2835         {
;;;2836           ret = BSP_ERROR_COMPONENT_FAILURE;
;;;2837         }
;;;2838         else
;;;2839         {
;;;2840           ret = BSP_ERROR_NONE;
;;;2841         }
;;;2842         break;
;;;2843   #endif
;;;2844   
;;;2845   #if (USE_IKS01A2_MOTION_SENSOR_LIS2MDL_0 == 1)
;;;2846       case IKS01A2_LIS2MDL_0:
;;;2847         if (LIS2MDL_Read_Reg(MotionCompObj[Instance], Reg, Data) != BSP_ERROR_NONE)
;;;2848         {
;;;2849           ret = BSP_ERROR_COMPONENT_FAILURE;
;;;2850         }
;;;2851         else
;;;2852         {
;;;2853           ret = BSP_ERROR_NONE;
;;;2854         }
;;;2855         break;
;;;2856   #endif
;;;2857   
;;;2858   #if (USE_IKS01A2_MOTION_SENSOR_LSM6DSO_0 == 1)
;;;2859       case IKS01A2_LSM6DSO_0:
;;;2860         if (LSM6DSO_Read_Reg(MotionCompObj[Instance], Reg, Data) != BSP_ERROR_NONE)
;;;2861         {
;;;2862           ret = BSP_ERROR_COMPONENT_FAILURE;
;;;2863         }
;;;2864         else
;;;2865         {
;;;2866           ret = BSP_ERROR_NONE;
;;;2867         }
;;;2868         break;
;;;2869   #endif
;;;2870   
;;;2871   #if (USE_IKS01A2_MOTION_SENSOR_LSM6DSOX_0 == 1)
;;;2872       case IKS01A2_LSM6DSOX_0:
;;;2873         if (LSM6DSOX_Read_Reg(MotionCompObj[Instance], Reg, Data) != BSP_ERROR_NONE)
;;;2874         {
;;;2875           ret = BSP_ERROR_COMPONENT_FAILURE;
;;;2876         }
;;;2877         else
;;;2878         {
;;;2879           ret = BSP_ERROR_NONE;
;;;2880         }
;;;2881         break;
;;;2882   #endif
;;;2883   
;;;2884       default:
;;;2885         ret = BSP_ERROR_WRONG_PARAM;
000064  f06f0401          MVN      r4,#1
;;;2886         break;
000068  bf00              NOP      
                  |L41.106|
00006a  bf00              NOP                            ;2712
;;;2887     }
;;;2888   
;;;2889     return ret;
00006c  4620              MOV      r0,r4
;;;2890   }
00006e  e8bd81f0          POP      {r4-r8,pc}
;;;2891   
                          ENDP

000072  0000              DCW      0x0000
                  |L41.116|
                          DCD      MotionCompObj

                          AREA ||i.IKS01A2_MOTION_SENSOR_Reset_Step_Counter||, CODE, READONLY, ALIGN=2

                  IKS01A2_MOTION_SENSOR_Reset_Step_Counter PROC
;;;891     */
;;;892    int32_t IKS01A2_MOTION_SENSOR_Reset_Step_Counter(uint32_t Instance)
000000  b570              PUSH     {r4-r6,lr}
;;;893    {
000002  4605              MOV      r5,r0
;;;894      int32_t ret;
;;;895    
;;;896      switch (Instance)
000004  b125              CBZ      r5,|L42.16|
000006  2d01              CMP      r5,#1
000008  d00d              BEQ      |L42.38|
00000a  2d02              CMP      r5,#2
00000c  d111              BNE      |L42.50|
00000e  e00d              B        |L42.44|
                  |L42.16|
;;;897      {
;;;898    #if (USE_IKS01A2_MOTION_SENSOR_LSM6DSL_0 == 1)
;;;899        case IKS01A2_LSM6DSL_0:
;;;900          if (LSM6DSL_ACC_Enable_Step_Counter_Reset(MotionCompObj[Instance]) != BSP_ERROR_NONE)
000010  490b              LDR      r1,|L42.64|
000012  f8510025          LDR      r0,[r1,r5,LSL #2]
000016  f7fffffe          BL       LSM6DSL_ACC_Enable_Step_Counter_Reset
00001a  b110              CBZ      r0,|L42.34|
;;;901          {
;;;902            ret = BSP_ERROR_COMPONENT_FAILURE;
00001c  f06f0404          MVN      r4,#4
000020  e000              B        |L42.36|
                  |L42.34|
;;;903          }
;;;904          else
;;;905          {
;;;906            ret = BSP_ERROR_NONE;
000022  2400              MOVS     r4,#0
                  |L42.36|
;;;907          }
;;;908          break;
000024  e008              B        |L42.56|
                  |L42.38|
;;;909    #endif
;;;910    
;;;911    #if (USE_IKS01A2_MOTION_SENSOR_LSM303AGR_ACC_0 == 1)
;;;912        case IKS01A2_LSM303AGR_ACC_0:
;;;913          ret = BSP_ERROR_COMPONENT_FAILURE;
000026  f06f0404          MVN      r4,#4
;;;914          break;
00002a  e005              B        |L42.56|
                  |L42.44|
;;;915    #endif
;;;916    
;;;917    #if (USE_IKS01A2_MOTION_SENSOR_LSM303AGR_MAG_0 == 1)
;;;918        case IKS01A2_LSM303AGR_MAG_0:
;;;919          ret = BSP_ERROR_COMPONENT_FAILURE;
00002c  f06f0404          MVN      r4,#4
;;;920          break;
000030  e002              B        |L42.56|
                  |L42.50|
;;;921    #endif
;;;922    
;;;923        default:
;;;924          ret = BSP_ERROR_WRONG_PARAM;
000032  f06f0401          MVN      r4,#1
;;;925          break;
000036  bf00              NOP      
                  |L42.56|
000038  bf00              NOP                            ;908
;;;926      }
;;;927    
;;;928      return ret;
00003a  4620              MOV      r0,r4
;;;929    }
00003c  bd70              POP      {r4-r6,pc}
;;;930    
                          ENDP

00003e  0000              DCW      0x0000
                  |L42.64|
                          DCD      MotionCompObj

                          AREA ||i.IKS01A2_MOTION_SENSOR_Set_6D_Orientation_Threshold||, CODE, READONLY, ALIGN=2

                  IKS01A2_MOTION_SENSOR_Set_6D_Orientation_Threshold PROC
;;;467     */
;;;468    int32_t IKS01A2_MOTION_SENSOR_Set_6D_Orientation_Threshold(uint32_t Instance, uint8_t Threshold)
000000  b570              PUSH     {r4-r6,lr}
;;;469    {
000002  4605              MOV      r5,r0
000004  460e              MOV      r6,r1
;;;470      int32_t ret;
;;;471    
;;;472      switch (Instance)
000006  b125              CBZ      r5,|L43.18|
000008  2d01              CMP      r5,#1
00000a  d00e              BEQ      |L43.42|
00000c  2d02              CMP      r5,#2
00000e  d112              BNE      |L43.54|
000010  e00e              B        |L43.48|
                  |L43.18|
;;;473      {
;;;474    #if (USE_IKS01A2_MOTION_SENSOR_LSM6DSL_0 == 1)
;;;475        case IKS01A2_LSM6DSL_0:
;;;476          if (LSM6DSL_ACC_Set_6D_Orientation_Threshold(MotionCompObj[Instance], Threshold) != BSP_ERROR_NONE)
000012  490c              LDR      r1,|L43.68|
000014  f8510025          LDR      r0,[r1,r5,LSL #2]
000018  4631              MOV      r1,r6
00001a  f7fffffe          BL       LSM6DSL_ACC_Set_6D_Orientation_Threshold
00001e  b110              CBZ      r0,|L43.38|
;;;477          {
;;;478            ret = BSP_ERROR_COMPONENT_FAILURE;
000020  f06f0404          MVN      r4,#4
000024  e000              B        |L43.40|
                  |L43.38|
;;;479          }
;;;480          else
;;;481          {
;;;482            ret = BSP_ERROR_NONE;
000026  2400              MOVS     r4,#0
                  |L43.40|
;;;483          }
;;;484          break;
000028  e008              B        |L43.60|
                  |L43.42|
;;;485    #endif
;;;486    
;;;487    #if (USE_IKS01A2_MOTION_SENSOR_LSM303AGR_ACC_0 == 1)
;;;488        case IKS01A2_LSM303AGR_ACC_0:
;;;489          ret = BSP_ERROR_COMPONENT_FAILURE;
00002a  f06f0404          MVN      r4,#4
;;;490          break;
00002e  e005              B        |L43.60|
                  |L43.48|
;;;491    #endif
;;;492    
;;;493    #if (USE_IKS01A2_MOTION_SENSOR_LSM303AGR_MAG_0 == 1)
;;;494        case IKS01A2_LSM303AGR_MAG_0:
;;;495          ret = BSP_ERROR_COMPONENT_FAILURE;
000030  f06f0404          MVN      r4,#4
;;;496          break;
000034  e002              B        |L43.60|
                  |L43.54|
;;;497    #endif
;;;498    
;;;499    #if (USE_IKS01A2_MOTION_SENSOR_ISM330DLC_0 == 1)
;;;500        case IKS01A2_ISM330DLC_0:
;;;501          if (ISM330DLC_ACC_Set_6D_Orientation_Threshold(MotionCompObj[Instance], Threshold) != BSP_ERROR_NONE)
;;;502          {
;;;503            ret = BSP_ERROR_COMPONENT_FAILURE;
;;;504          }
;;;505          else
;;;506          {
;;;507            ret = BSP_ERROR_NONE;
;;;508          }
;;;509          break;
;;;510    #endif
;;;511    
;;;512        default:
;;;513          ret = BSP_ERROR_WRONG_PARAM;
000036  f06f0401          MVN      r4,#1
;;;514          break;
00003a  bf00              NOP      
                  |L43.60|
00003c  bf00              NOP                            ;484
;;;515      }
;;;516    
;;;517      return ret;
00003e  4620              MOV      r0,r4
;;;518    }
000040  bd70              POP      {r4-r6,pc}
;;;519    
                          ENDP

000042  0000              DCW      0x0000
                  |L43.68|
                          DCD      MotionCompObj

                          AREA ||i.IKS01A2_MOTION_SENSOR_Set_Free_Fall_Duration||, CODE, READONLY, ALIGN=2

                  IKS01A2_MOTION_SENSOR_Set_Free_Fall_Duration PROC
;;;699     */
;;;700    int32_t IKS01A2_MOTION_SENSOR_Set_Free_Fall_Duration(uint32_t Instance, uint8_t Duration)
000000  b570              PUSH     {r4-r6,lr}
;;;701    {
000002  4605              MOV      r5,r0
000004  460e              MOV      r6,r1
;;;702      int32_t ret;
;;;703    
;;;704      switch (Instance)
000006  b125              CBZ      r5,|L44.18|
000008  2d01              CMP      r5,#1
00000a  d00e              BEQ      |L44.42|
00000c  2d02              CMP      r5,#2
00000e  d112              BNE      |L44.54|
000010  e00e              B        |L44.48|
                  |L44.18|
;;;705      {
;;;706    #if (USE_IKS01A2_MOTION_SENSOR_LSM6DSL_0 == 1)
;;;707        case IKS01A2_LSM6DSL_0:
;;;708          if (LSM6DSL_ACC_Set_Free_Fall_Duration(MotionCompObj[Instance], Duration) != BSP_ERROR_NONE)
000012  490c              LDR      r1,|L44.68|
000014  f8510025          LDR      r0,[r1,r5,LSL #2]
000018  4631              MOV      r1,r6
00001a  f7fffffe          BL       LSM6DSL_ACC_Set_Free_Fall_Duration
00001e  b110              CBZ      r0,|L44.38|
;;;709          {
;;;710            ret = BSP_ERROR_COMPONENT_FAILURE;
000020  f06f0404          MVN      r4,#4
000024  e000              B        |L44.40|
                  |L44.38|
;;;711          }
;;;712          else
;;;713          {
;;;714            ret = BSP_ERROR_NONE;
000026  2400              MOVS     r4,#0
                  |L44.40|
;;;715          }
;;;716          break;
000028  e008              B        |L44.60|
                  |L44.42|
;;;717    #endif
;;;718    
;;;719    #if (USE_IKS01A2_MOTION_SENSOR_LSM303AGR_ACC_0 == 1)
;;;720        case IKS01A2_LSM303AGR_ACC_0:
;;;721          ret = BSP_ERROR_COMPONENT_FAILURE;
00002a  f06f0404          MVN      r4,#4
;;;722          break;
00002e  e005              B        |L44.60|
                  |L44.48|
;;;723    #endif
;;;724    
;;;725    #if (USE_IKS01A2_MOTION_SENSOR_LSM303AGR_MAG_0 == 1)
;;;726        case IKS01A2_LSM303AGR_MAG_0:
;;;727          ret = BSP_ERROR_COMPONENT_FAILURE;
000030  f06f0404          MVN      r4,#4
;;;728          break;
000034  e002              B        |L44.60|
                  |L44.54|
;;;729    #endif
;;;730    
;;;731    #if (USE_IKS01A2_MOTION_SENSOR_ISM330DLC_0 == 1)
;;;732        case IKS01A2_ISM330DLC_0:
;;;733          if (ISM330DLC_ACC_Set_Free_Fall_Duration(MotionCompObj[Instance], Duration) != BSP_ERROR_NONE)
;;;734          {
;;;735            ret = BSP_ERROR_COMPONENT_FAILURE;
;;;736          }
;;;737          else
;;;738          {
;;;739            ret = BSP_ERROR_NONE;
;;;740          }
;;;741          break;
;;;742    #endif
;;;743    
;;;744        default:
;;;745          ret = BSP_ERROR_WRONG_PARAM;
000036  f06f0401          MVN      r4,#1
;;;746          break;
00003a  bf00              NOP      
                  |L44.60|
00003c  bf00              NOP                            ;716
;;;747      }
;;;748    
;;;749      return ret;
00003e  4620              MOV      r0,r4
;;;750    }
000040  bd70              POP      {r4-r6,pc}
;;;751    
                          ENDP

000042  0000              DCW      0x0000
                  |L44.68|
                          DCD      MotionCompObj

                          AREA ||i.IKS01A2_MOTION_SENSOR_Set_Free_Fall_Threshold||, CODE, READONLY, ALIGN=2

                  IKS01A2_MOTION_SENSOR_Set_Free_Fall_Threshold PROC
;;;641     */
;;;642    int32_t IKS01A2_MOTION_SENSOR_Set_Free_Fall_Threshold(uint32_t Instance, uint8_t Threshold)
000000  b570              PUSH     {r4-r6,lr}
;;;643    {
000002  4605              MOV      r5,r0
000004  460e              MOV      r6,r1
;;;644      int32_t ret;
;;;645    
;;;646      switch (Instance)
000006  b125              CBZ      r5,|L45.18|
000008  2d01              CMP      r5,#1
00000a  d00e              BEQ      |L45.42|
00000c  2d02              CMP      r5,#2
00000e  d112              BNE      |L45.54|
000010  e00e              B        |L45.48|
                  |L45.18|
;;;647      {
;;;648    #if (USE_IKS01A2_MOTION_SENSOR_LSM6DSL_0 == 1)
;;;649        case IKS01A2_LSM6DSL_0:
;;;650          if (LSM6DSL_ACC_Set_Free_Fall_Threshold(MotionCompObj[Instance], Threshold) != BSP_ERROR_NONE)
000012  490c              LDR      r1,|L45.68|
000014  f8510025          LDR      r0,[r1,r5,LSL #2]
000018  4631              MOV      r1,r6
00001a  f7fffffe          BL       LSM6DSL_ACC_Set_Free_Fall_Threshold
00001e  b110              CBZ      r0,|L45.38|
;;;651          {
;;;652            ret = BSP_ERROR_COMPONENT_FAILURE;
000020  f06f0404          MVN      r4,#4
000024  e000              B        |L45.40|
                  |L45.38|
;;;653          }
;;;654          else
;;;655          {
;;;656            ret = BSP_ERROR_NONE;
000026  2400              MOVS     r4,#0
                  |L45.40|
;;;657          }
;;;658          break;
000028  e008              B        |L45.60|
                  |L45.42|
;;;659    #endif
;;;660    
;;;661    #if (USE_IKS01A2_MOTION_SENSOR_LSM303AGR_ACC_0 == 1)
;;;662        case IKS01A2_LSM303AGR_ACC_0:
;;;663          ret = BSP_ERROR_COMPONENT_FAILURE;
00002a  f06f0404          MVN      r4,#4
;;;664          break;
00002e  e005              B        |L45.60|
                  |L45.48|
;;;665    #endif
;;;666    
;;;667    #if (USE_IKS01A2_MOTION_SENSOR_LSM303AGR_MAG_0 == 1)
;;;668        case IKS01A2_LSM303AGR_MAG_0:
;;;669          ret = BSP_ERROR_COMPONENT_FAILURE;
000030  f06f0404          MVN      r4,#4
;;;670          break;
000034  e002              B        |L45.60|
                  |L45.54|
;;;671    #endif
;;;672    
;;;673    #if (USE_IKS01A2_MOTION_SENSOR_ISM330DLC_0 == 1)
;;;674        case IKS01A2_ISM330DLC_0:
;;;675          if (ISM330DLC_ACC_Set_Free_Fall_Threshold(MotionCompObj[Instance], Threshold) != BSP_ERROR_NONE)
;;;676          {
;;;677            ret = BSP_ERROR_COMPONENT_FAILURE;
;;;678          }
;;;679          else
;;;680          {
;;;681            ret = BSP_ERROR_NONE;
;;;682          }
;;;683          break;
;;;684    #endif
;;;685    
;;;686        default:
;;;687          ret = BSP_ERROR_WRONG_PARAM;
000036  f06f0401          MVN      r4,#1
;;;688          break;
00003a  bf00              NOP      
                  |L45.60|
00003c  bf00              NOP                            ;658
;;;689      }
;;;690    
;;;691      return ret;
00003e  4620              MOV      r0,r4
;;;692    }
000040  bd70              POP      {r4-r6,pc}
;;;693    
                          ENDP

000042  0000              DCW      0x0000
                  |L45.68|
                          DCD      MotionCompObj

                          AREA ||i.IKS01A2_MOTION_SENSOR_Set_INT1_DRDY||, CODE, READONLY, ALIGN=2

                  IKS01A2_MOTION_SENSOR_Set_INT1_DRDY PROC
;;;131     */
;;;132    int32_t IKS01A2_MOTION_SENSOR_Set_INT1_DRDY(uint32_t Instance, uint8_t Status)
000000  b570              PUSH     {r4-r6,lr}
;;;133    {
000002  4605              MOV      r5,r0
000004  460e              MOV      r6,r1
;;;134      int32_t ret;
;;;135    
;;;136      switch (Instance)
000006  b125              CBZ      r5,|L46.18|
000008  2d01              CMP      r5,#1
00000a  d00e              BEQ      |L46.42|
00000c  2d02              CMP      r5,#2
00000e  d112              BNE      |L46.54|
000010  e00e              B        |L46.48|
                  |L46.18|
;;;137      {
;;;138    #if (USE_IKS01A2_MOTION_SENSOR_LSM6DSL_0 == 1)
;;;139        case IKS01A2_LSM6DSL_0:
;;;140          if (LSM6DSL_ACC_Set_INT1_DRDY(MotionCompObj[Instance], Status) != BSP_ERROR_NONE)
000012  490c              LDR      r1,|L46.68|
000014  f8510025          LDR      r0,[r1,r5,LSL #2]
000018  4631              MOV      r1,r6
00001a  f7fffffe          BL       LSM6DSL_ACC_Set_INT1_DRDY
00001e  b110              CBZ      r0,|L46.38|
;;;141          {
;;;142            ret = BSP_ERROR_COMPONENT_FAILURE;
000020  f06f0404          MVN      r4,#4
000024  e000              B        |L46.40|
                  |L46.38|
;;;143          }
;;;144          else
;;;145          {
;;;146            ret = BSP_ERROR_NONE;
000026  2400              MOVS     r4,#0
                  |L46.40|
;;;147          }
;;;148          break;
000028  e008              B        |L46.60|
                  |L46.42|
;;;149    #endif
;;;150    
;;;151    #if (USE_IKS01A2_MOTION_SENSOR_ISM330DLC_0 == 1)
;;;152        case IKS01A2_ISM330DLC_0:
;;;153          if (ISM330DLC_Set_INT1_Drdy(MotionCompObj[Instance], Status) != BSP_ERROR_NONE)
;;;154          {
;;;155            ret = BSP_ERROR_COMPONENT_FAILURE;
;;;156          }
;;;157          else
;;;158          {
;;;159            ret = BSP_ERROR_NONE;
;;;160          }
;;;161          break;
;;;162    #endif
;;;163    
;;;164    #if (USE_IKS01A2_MOTION_SENSOR_LSM303AGR_ACC_0 == 1)
;;;165        case IKS01A2_LSM303AGR_ACC_0:
;;;166          ret = BSP_ERROR_COMPONENT_FAILURE;
00002a  f06f0404          MVN      r4,#4
;;;167          break;
00002e  e005              B        |L46.60|
                  |L46.48|
;;;168    #endif
;;;169    
;;;170    #if (USE_IKS01A2_MOTION_SENSOR_LSM303AGR_MAG_0 == 1)
;;;171        case IKS01A2_LSM303AGR_MAG_0:
;;;172          ret = BSP_ERROR_COMPONENT_FAILURE;
000030  f06f0404          MVN      r4,#4
;;;173          break;
000034  e002              B        |L46.60|
                  |L46.54|
;;;174    #endif
;;;175    
;;;176        default:
;;;177          ret = BSP_ERROR_WRONG_PARAM;
000036  f06f0401          MVN      r4,#1
;;;178          break;
00003a  bf00              NOP      
                  |L46.60|
00003c  bf00              NOP                            ;148
;;;179      }
;;;180    
;;;181      return ret;
00003e  4620              MOV      r0,r4
;;;182    }
000040  bd70              POP      {r4-r6,pc}
;;;183    
                          ENDP

000042  0000              DCW      0x0000
                  |L46.68|
                          DCD      MotionCompObj

                          AREA ||i.IKS01A2_MOTION_SENSOR_Set_INT2_DRDY||, CODE, READONLY, ALIGN=1

                  IKS01A2_MOTION_SENSOR_Set_INT2_DRDY PROC
;;;189     */
;;;190    int32_t IKS01A2_MOTION_SENSOR_Set_INT2_DRDY(uint32_t Instance, uint8_t Status)
000000  4602              MOV      r2,r0
;;;191    {
;;;192      int32_t ret;
;;;193    
;;;194      switch (Instance)
000002  b122              CBZ      r2,|L47.14|
000004  2a01              CMP      r2,#1
000006  d005              BEQ      |L47.20|
000008  2a02              CMP      r2,#2
00000a  d109              BNE      |L47.32|
00000c  e005              B        |L47.26|
                  |L47.14|
;;;195      {
;;;196    #if (USE_IKS01A2_MOTION_SENSOR_LSM6DSL_0 == 1)
;;;197        case IKS01A2_LSM6DSL_0:
;;;198          ret = BSP_ERROR_COMPONENT_FAILURE;
00000e  f06f0004          MVN      r0,#4
;;;199          break;
000012  e008              B        |L47.38|
                  |L47.20|
;;;200    #endif
;;;201    
;;;202    #if (USE_IKS01A2_MOTION_SENSOR_ISM330DLC_0 == 1)
;;;203        case IKS01A2_ISM330DLC_0:
;;;204          if (ISM330DLC_Set_INT2_Drdy(MotionCompObj[Instance], Status) != BSP_ERROR_NONE)
;;;205          {
;;;206            ret = BSP_ERROR_COMPONENT_FAILURE;
;;;207          }
;;;208          else
;;;209          {
;;;210            ret = BSP_ERROR_NONE;
;;;211          }
;;;212          break;
;;;213    #endif
;;;214    
;;;215    #if (USE_IKS01A2_MOTION_SENSOR_LSM303AGR_ACC_0 == 1)
;;;216        case IKS01A2_LSM303AGR_ACC_0:
;;;217          ret = BSP_ERROR_COMPONENT_FAILURE;
000014  f06f0004          MVN      r0,#4
;;;218          break;
000018  e005              B        |L47.38|
                  |L47.26|
;;;219    #endif
;;;220    
;;;221    #if (USE_IKS01A2_MOTION_SENSOR_LSM303AGR_MAG_0 == 1)
;;;222        case IKS01A2_LSM303AGR_MAG_0:
;;;223          ret = BSP_ERROR_COMPONENT_FAILURE;
00001a  f06f0004          MVN      r0,#4
;;;224          break;
00001e  e002              B        |L47.38|
                  |L47.32|
;;;225    #endif
;;;226    
;;;227        default:
;;;228          ret = BSP_ERROR_WRONG_PARAM;
000020  f06f0001          MVN      r0,#1
;;;229          break;
000024  bf00              NOP      
                  |L47.38|
000026  bf00              NOP                            ;199
;;;230      }
;;;231    
;;;232      return ret;
;;;233    }
000028  4770              BX       lr
;;;234    
                          ENDP


                          AREA ||i.IKS01A2_MOTION_SENSOR_Set_Pedometer_Threshold||, CODE, READONLY, ALIGN=2

                  IKS01A2_MOTION_SENSOR_Set_Pedometer_Threshold PROC
;;;846     */
;;;847    int32_t IKS01A2_MOTION_SENSOR_Set_Pedometer_Threshold(uint32_t Instance, uint8_t Threshold)
000000  b570              PUSH     {r4-r6,lr}
;;;848    {
000002  4605              MOV      r5,r0
000004  460e              MOV      r6,r1
;;;849      int32_t ret;
;;;850    
;;;851      switch (Instance)
000006  b125              CBZ      r5,|L48.18|
000008  2d01              CMP      r5,#1
00000a  d00e              BEQ      |L48.42|
00000c  2d02              CMP      r5,#2
00000e  d112              BNE      |L48.54|
000010  e00e              B        |L48.48|
                  |L48.18|
;;;852      {
;;;853    #if (USE_IKS01A2_MOTION_SENSOR_LSM6DSL_0 == 1)
;;;854        case IKS01A2_LSM6DSL_0:
;;;855          if (LSM6DSL_ACC_Set_Pedometer_Threshold(MotionCompObj[Instance], Threshold) != BSP_ERROR_NONE)
000012  490c              LDR      r1,|L48.68|
000014  f8510025          LDR      r0,[r1,r5,LSL #2]
000018  4631              MOV      r1,r6
00001a  f7fffffe          BL       LSM6DSL_ACC_Set_Pedometer_Threshold
00001e  b110              CBZ      r0,|L48.38|
;;;856          {
;;;857            ret = BSP_ERROR_COMPONENT_FAILURE;
000020  f06f0404          MVN      r4,#4
000024  e000              B        |L48.40|
                  |L48.38|
;;;858          }
;;;859          else
;;;860          {
;;;861            ret = BSP_ERROR_NONE;
000026  2400              MOVS     r4,#0
                  |L48.40|
;;;862          }
;;;863          break;
000028  e008              B        |L48.60|
                  |L48.42|
;;;864    #endif
;;;865    
;;;866    #if (USE_IKS01A2_MOTION_SENSOR_LSM303AGR_ACC_0 == 1)
;;;867        case IKS01A2_LSM303AGR_ACC_0:
;;;868          ret = BSP_ERROR_COMPONENT_FAILURE;
00002a  f06f0404          MVN      r4,#4
;;;869          break;
00002e  e005              B        |L48.60|
                  |L48.48|
;;;870    #endif
;;;871    
;;;872    #if (USE_IKS01A2_MOTION_SENSOR_LSM303AGR_MAG_0 == 1)
;;;873        case IKS01A2_LSM303AGR_MAG_0:
;;;874          ret = BSP_ERROR_COMPONENT_FAILURE;
000030  f06f0404          MVN      r4,#4
;;;875          break;
000034  e002              B        |L48.60|
                  |L48.54|
;;;876    #endif
;;;877    
;;;878        default:
;;;879          ret = BSP_ERROR_WRONG_PARAM;
000036  f06f0401          MVN      r4,#1
;;;880          break;
00003a  bf00              NOP      
                  |L48.60|
00003c  bf00              NOP                            ;863
;;;881      }
;;;882    
;;;883      return ret;
00003e  4620              MOV      r0,r4
;;;884    }
000040  bd70              POP      {r4-r6,pc}
;;;885    
                          ENDP

000042  0000              DCW      0x0000
                  |L48.68|
                          DCD      MotionCompObj

                          AREA ||i.IKS01A2_MOTION_SENSOR_Set_SelfTest||, CODE, READONLY, ALIGN=2

                  IKS01A2_MOTION_SENSOR_Set_SelfTest PROC
;;;3876    */
;;;3877   int32_t IKS01A2_MOTION_SENSOR_Set_SelfTest(uint32_t Instance, uint32_t Function, uint8_t Mode)
000000  e92d41f0          PUSH     {r4-r8,lr}
;;;3878   {
000004  4605              MOV      r5,r0
000006  460e              MOV      r6,r1
000008  4617              MOV      r7,r2
;;;3879     int32_t ret;
;;;3880   
;;;3881     switch (Instance)
00000a  b125              CBZ      r5,|L49.22|
00000c  2d01              CMP      r5,#1
00000e  d024              BEQ      |L49.90|
000010  2d02              CMP      r5,#2
000012  d128              BNE      |L49.102|
000014  e024              B        |L49.96|
                  |L49.22|
;;;3882     {
;;;3883   #if (USE_IKS01A2_MOTION_SENSOR_LSM6DSL_0 == 1)
;;;3884       case IKS01A2_LSM6DSL_0:
;;;3885         if ((Function & MOTION_ACCELERO) == MOTION_ACCELERO)
000016  f0060002          AND      r0,r6,#2
00001a  2802              CMP      r0,#2
00001c  d10b              BNE      |L49.54|
;;;3886         {
;;;3887           if (LSM6DSL_ACC_Set_SelfTest(MotionCompObj[Instance], Mode) != BSP_ERROR_NONE)
00001e  4915              LDR      r1,|L49.116|
000020  f8510025          LDR      r0,[r1,r5,LSL #2]
000024  4639              MOV      r1,r7
000026  f7fffffe          BL       LSM6DSL_ACC_Set_SelfTest
00002a  b110              CBZ      r0,|L49.50|
;;;3888           {
;;;3889             ret = BSP_ERROR_COMPONENT_FAILURE;
00002c  f06f0404          MVN      r4,#4
000030  e012              B        |L49.88|
                  |L49.50|
;;;3890           }
;;;3891           else
;;;3892           {
;;;3893             ret = BSP_ERROR_NONE;
000032  2400              MOVS     r4,#0
000034  e010              B        |L49.88|
                  |L49.54|
;;;3894           }
;;;3895         }
;;;3896         else if ((Function & MOTION_GYRO) == MOTION_GYRO)
000036  f0060001          AND      r0,r6,#1
00003a  b158              CBZ      r0,|L49.84|
;;;3897         {
;;;3898           if (LSM6DSL_GYRO_Set_SelfTest(MotionCompObj[Instance], Mode) != BSP_ERROR_NONE)
00003c  490d              LDR      r1,|L49.116|
00003e  f8510025          LDR      r0,[r1,r5,LSL #2]
000042  4639              MOV      r1,r7
000044  f7fffffe          BL       LSM6DSL_GYRO_Set_SelfTest
000048  b110              CBZ      r0,|L49.80|
;;;3899           {
;;;3900             ret = BSP_ERROR_COMPONENT_FAILURE;
00004a  f06f0404          MVN      r4,#4
00004e  e003              B        |L49.88|
                  |L49.80|
;;;3901           }
;;;3902           else
;;;3903           {
;;;3904             ret = BSP_ERROR_NONE;
000050  2400              MOVS     r4,#0
000052  e001              B        |L49.88|
                  |L49.84|
;;;3905           }
;;;3906         }
;;;3907         else
;;;3908         {
;;;3909           ret = BSP_ERROR_WRONG_PARAM;
000054  f06f0401          MVN      r4,#1
                  |L49.88|
;;;3910         }
;;;3911         break;
000058  e008              B        |L49.108|
                  |L49.90|
;;;3912   #endif
;;;3913   
;;;3914   #if (USE_IKS01A2_MOTION_SENSOR_ISM330DLC_0 == 1)
;;;3915       case IKS01A2_ISM330DLC_0:
;;;3916         if ((Function & MOTION_ACCELERO) == MOTION_ACCELERO)
;;;3917         {
;;;3918           if (ISM330DLC_ACC_Set_SelfTest(MotionCompObj[Instance], Mode) != BSP_ERROR_NONE)
;;;3919           {
;;;3920             ret = BSP_ERROR_COMPONENT_FAILURE;
;;;3921           }
;;;3922           else
;;;3923           {
;;;3924             ret = BSP_ERROR_NONE;
;;;3925           }
;;;3926         }
;;;3927         else if ((Function & MOTION_GYRO) == MOTION_GYRO)
;;;3928         {
;;;3929           if (ISM330DLC_GYRO_Set_SelfTest(MotionCompObj[Instance], Mode) != BSP_ERROR_NONE)
;;;3930           {
;;;3931             ret = BSP_ERROR_COMPONENT_FAILURE;
;;;3932           }
;;;3933           else
;;;3934           {
;;;3935             ret = BSP_ERROR_NONE;
;;;3936           }
;;;3937         }
;;;3938         else
;;;3939         {
;;;3940           ret = BSP_ERROR_WRONG_PARAM;
;;;3941         }
;;;3942         break;
;;;3943   #endif
;;;3944   
;;;3945   #if (USE_IKS01A2_MOTION_SENSOR_LSM303AGR_ACC_0 == 1)
;;;3946       case IKS01A2_LSM303AGR_ACC_0:
;;;3947         ret = BSP_ERROR_COMPONENT_FAILURE;
00005a  f06f0404          MVN      r4,#4
;;;3948         break;
00005e  e005              B        |L49.108|
                  |L49.96|
;;;3949   #endif
;;;3950   
;;;3951   #if (USE_IKS01A2_MOTION_SENSOR_LSM303AGR_MAG_0 == 1)
;;;3952       case IKS01A2_LSM303AGR_MAG_0:
;;;3953         ret = BSP_ERROR_COMPONENT_FAILURE;
000060  f06f0404          MVN      r4,#4
;;;3954         break;
000064  e002              B        |L49.108|
                  |L49.102|
;;;3955   #endif
;;;3956   
;;;3957       default:
;;;3958         ret = BSP_ERROR_WRONG_PARAM;
000066  f06f0401          MVN      r4,#1
;;;3959         break;
00006a  bf00              NOP      
                  |L49.108|
00006c  bf00              NOP                            ;3911
;;;3960     }
;;;3961   
;;;3962     return ret;
00006e  4620              MOV      r0,r4
;;;3963   }
000070  e8bd81f0          POP      {r4-r8,pc}
;;;3964   
                          ENDP

                  |L49.116|
                          DCD      MotionCompObj

                          AREA ||i.IKS01A2_MOTION_SENSOR_Set_Sleep_Duration||, CODE, READONLY, ALIGN=2

                  IKS01A2_MOTION_SENSOR_Set_Sleep_Duration PROC
;;;1837    */
;;;1838   int32_t IKS01A2_MOTION_SENSOR_Set_Sleep_Duration(uint32_t Instance, uint8_t Duration)
000000  b570              PUSH     {r4-r6,lr}
;;;1839   {
000002  4605              MOV      r5,r0
000004  460e              MOV      r6,r1
;;;1840     int32_t ret;
;;;1841   
;;;1842     switch (Instance)
000006  b125              CBZ      r5,|L50.18|
000008  2d01              CMP      r5,#1
00000a  d00e              BEQ      |L50.42|
00000c  2d02              CMP      r5,#2
00000e  d112              BNE      |L50.54|
000010  e00e              B        |L50.48|
                  |L50.18|
;;;1843     {
;;;1844   #if (USE_IKS01A2_MOTION_SENSOR_LSM6DSL_0 == 1)
;;;1845       case IKS01A2_LSM6DSL_0:
;;;1846         if (LSM6DSL_ACC_Set_Sleep_Duration(MotionCompObj[Instance], Duration) != BSP_ERROR_NONE)
000012  490c              LDR      r1,|L50.68|
000014  f8510025          LDR      r0,[r1,r5,LSL #2]
000018  4631              MOV      r1,r6
00001a  f7fffffe          BL       LSM6DSL_ACC_Set_Sleep_Duration
00001e  b110              CBZ      r0,|L50.38|
;;;1847         {
;;;1848           ret = BSP_ERROR_COMPONENT_FAILURE;
000020  f06f0404          MVN      r4,#4
000024  e000              B        |L50.40|
                  |L50.38|
;;;1849         }
;;;1850         else
;;;1851         {
;;;1852           ret = BSP_ERROR_NONE;
000026  2400              MOVS     r4,#0
                  |L50.40|
;;;1853         }
;;;1854         break;
000028  e008              B        |L50.60|
                  |L50.42|
;;;1855   #endif
;;;1856   
;;;1857   #if (USE_IKS01A2_MOTION_SENSOR_LSM303AGR_ACC_0 == 1)
;;;1858       case IKS01A2_LSM303AGR_ACC_0:
;;;1859         ret = BSP_ERROR_COMPONENT_FAILURE;
00002a  f06f0404          MVN      r4,#4
;;;1860         break;
00002e  e005              B        |L50.60|
                  |L50.48|
;;;1861   #endif
;;;1862   
;;;1863   #if (USE_IKS01A2_MOTION_SENSOR_LSM303AGR_MAG_0 == 1)
;;;1864       case IKS01A2_LSM303AGR_MAG_0:
;;;1865         ret = BSP_ERROR_COMPONENT_FAILURE;
000030  f06f0404          MVN      r4,#4
;;;1866         break;
000034  e002              B        |L50.60|
                  |L50.54|
;;;1867   #endif
;;;1868   
;;;1869       default:
;;;1870         ret = BSP_ERROR_WRONG_PARAM;
000036  f06f0401          MVN      r4,#1
;;;1871         break;
00003a  bf00              NOP      
                  |L50.60|
00003c  bf00              NOP                            ;1854
;;;1872     }
;;;1873   
;;;1874     return ret;
00003e  4620              MOV      r0,r4
;;;1875   }
000040  bd70              POP      {r4-r6,pc}
;;;1876   
                          ENDP

000042  0000              DCW      0x0000
                  |L50.68|
                          DCD      MotionCompObj

                          AREA ||i.IKS01A2_MOTION_SENSOR_Set_Tap_Duration_Time||, CODE, READONLY, ALIGN=2

                  IKS01A2_MOTION_SENSOR_Set_Tap_Duration_Time PROC
;;;1342    */
;;;1343   int32_t IKS01A2_MOTION_SENSOR_Set_Tap_Duration_Time(uint32_t Instance, uint8_t Time)
000000  b570              PUSH     {r4-r6,lr}
;;;1344   {
000002  4605              MOV      r5,r0
000004  460e              MOV      r6,r1
;;;1345     int32_t ret;
;;;1346   
;;;1347     switch (Instance)
000006  b125              CBZ      r5,|L51.18|
000008  2d01              CMP      r5,#1
00000a  d00e              BEQ      |L51.42|
00000c  2d02              CMP      r5,#2
00000e  d112              BNE      |L51.54|
000010  e00e              B        |L51.48|
                  |L51.18|
;;;1348     {
;;;1349   #if (USE_IKS01A2_MOTION_SENSOR_LSM6DSL_0 == 1)
;;;1350       case IKS01A2_LSM6DSL_0:
;;;1351         if (LSM6DSL_ACC_Set_Tap_Duration_Time(MotionCompObj[Instance], Time) != BSP_ERROR_NONE)
000012  490c              LDR      r1,|L51.68|
000014  f8510025          LDR      r0,[r1,r5,LSL #2]
000018  4631              MOV      r1,r6
00001a  f7fffffe          BL       LSM6DSL_ACC_Set_Tap_Duration_Time
00001e  b110              CBZ      r0,|L51.38|
;;;1352         {
;;;1353           ret = BSP_ERROR_COMPONENT_FAILURE;
000020  f06f0404          MVN      r4,#4
000024  e000              B        |L51.40|
                  |L51.38|
;;;1354         }
;;;1355         else
;;;1356         {
;;;1357           ret = BSP_ERROR_NONE;
000026  2400              MOVS     r4,#0
                  |L51.40|
;;;1358         }
;;;1359         break;
000028  e008              B        |L51.60|
                  |L51.42|
;;;1360   #endif
;;;1361   
;;;1362   #if (USE_IKS01A2_MOTION_SENSOR_LSM303AGR_ACC_0 == 1)
;;;1363       case IKS01A2_LSM303AGR_ACC_0:
;;;1364         ret = BSP_ERROR_COMPONENT_FAILURE;
00002a  f06f0404          MVN      r4,#4
;;;1365         break;
00002e  e005              B        |L51.60|
                  |L51.48|
;;;1366   #endif
;;;1367   
;;;1368   #if (USE_IKS01A2_MOTION_SENSOR_LSM303AGR_MAG_0 == 1)
;;;1369       case IKS01A2_LSM303AGR_MAG_0:
;;;1370         ret = BSP_ERROR_COMPONENT_FAILURE;
000030  f06f0404          MVN      r4,#4
;;;1371         break;
000034  e002              B        |L51.60|
                  |L51.54|
;;;1372   #endif
;;;1373   
;;;1374   #if (USE_IKS01A2_MOTION_SENSOR_ISM330DLC_0 == 1)
;;;1375       case IKS01A2_ISM330DLC_0:
;;;1376         if (ISM330DLC_ACC_Set_Tap_Duration_Time(MotionCompObj[Instance], Time) != BSP_ERROR_NONE)
;;;1377         {
;;;1378           ret = BSP_ERROR_COMPONENT_FAILURE;
;;;1379         }
;;;1380         else
;;;1381         {
;;;1382           ret = BSP_ERROR_NONE;
;;;1383         }
;;;1384         break;
;;;1385   #endif
;;;1386   
;;;1387       default:
;;;1388         ret = BSP_ERROR_WRONG_PARAM;
000036  f06f0401          MVN      r4,#1
;;;1389         break;
00003a  bf00              NOP      
                  |L51.60|
00003c  bf00              NOP                            ;1359
;;;1390     }
;;;1391   
;;;1392     return ret;
00003e  4620              MOV      r0,r4
;;;1393   }
000040  bd70              POP      {r4-r6,pc}
;;;1394   
                          ENDP

000042  0000              DCW      0x0000
                  |L51.68|
                          DCD      MotionCompObj

                          AREA ||i.IKS01A2_MOTION_SENSOR_Set_Tap_Quiet_Time||, CODE, READONLY, ALIGN=2

                  IKS01A2_MOTION_SENSOR_Set_Tap_Quiet_Time PROC
;;;1284    */
;;;1285   int32_t IKS01A2_MOTION_SENSOR_Set_Tap_Quiet_Time(uint32_t Instance, uint8_t Time)
000000  b570              PUSH     {r4-r6,lr}
;;;1286   {
000002  4605              MOV      r5,r0
000004  460e              MOV      r6,r1
;;;1287     int32_t ret;
;;;1288   
;;;1289     switch (Instance)
000006  b125              CBZ      r5,|L52.18|
000008  2d01              CMP      r5,#1
00000a  d00e              BEQ      |L52.42|
00000c  2d02              CMP      r5,#2
00000e  d112              BNE      |L52.54|
000010  e00e              B        |L52.48|
                  |L52.18|
;;;1290     {
;;;1291   #if (USE_IKS01A2_MOTION_SENSOR_LSM6DSL_0 == 1)
;;;1292       case IKS01A2_LSM6DSL_0:
;;;1293         if (LSM6DSL_ACC_Set_Tap_Quiet_Time(MotionCompObj[Instance], Time) != BSP_ERROR_NONE)
000012  490c              LDR      r1,|L52.68|
000014  f8510025          LDR      r0,[r1,r5,LSL #2]
000018  4631              MOV      r1,r6
00001a  f7fffffe          BL       LSM6DSL_ACC_Set_Tap_Quiet_Time
00001e  b110              CBZ      r0,|L52.38|
;;;1294         {
;;;1295           ret = BSP_ERROR_COMPONENT_FAILURE;
000020  f06f0404          MVN      r4,#4
000024  e000              B        |L52.40|
                  |L52.38|
;;;1296         }
;;;1297         else
;;;1298         {
;;;1299           ret = BSP_ERROR_NONE;
000026  2400              MOVS     r4,#0
                  |L52.40|
;;;1300         }
;;;1301         break;
000028  e008              B        |L52.60|
                  |L52.42|
;;;1302   #endif
;;;1303   
;;;1304   #if (USE_IKS01A2_MOTION_SENSOR_LSM303AGR_ACC_0 == 1)
;;;1305       case IKS01A2_LSM303AGR_ACC_0:
;;;1306         ret = BSP_ERROR_COMPONENT_FAILURE;
00002a  f06f0404          MVN      r4,#4
;;;1307         break;
00002e  e005              B        |L52.60|
                  |L52.48|
;;;1308   #endif
;;;1309   
;;;1310   #if (USE_IKS01A2_MOTION_SENSOR_LSM303AGR_MAG_0 == 1)
;;;1311       case IKS01A2_LSM303AGR_MAG_0:
;;;1312         ret = BSP_ERROR_COMPONENT_FAILURE;
000030  f06f0404          MVN      r4,#4
;;;1313         break;
000034  e002              B        |L52.60|
                  |L52.54|
;;;1314   #endif
;;;1315   
;;;1316   #if (USE_IKS01A2_MOTION_SENSOR_ISM330DLC_0 == 1)
;;;1317       case IKS01A2_ISM330DLC_0:
;;;1318         if (ISM330DLC_ACC_Set_Tap_Quiet_Time(MotionCompObj[Instance], Time) != BSP_ERROR_NONE)
;;;1319         {
;;;1320           ret = BSP_ERROR_COMPONENT_FAILURE;
;;;1321         }
;;;1322         else
;;;1323         {
;;;1324           ret = BSP_ERROR_NONE;
;;;1325         }
;;;1326         break;
;;;1327   #endif
;;;1328   
;;;1329       default:
;;;1330         ret = BSP_ERROR_WRONG_PARAM;
000036  f06f0401          MVN      r4,#1
;;;1331         break;
00003a  bf00              NOP      
                  |L52.60|
00003c  bf00              NOP                            ;1301
;;;1332     }
;;;1333   
;;;1334     return ret;
00003e  4620              MOV      r0,r4
;;;1335   }
000040  bd70              POP      {r4-r6,pc}
;;;1336   
                          ENDP

000042  0000              DCW      0x0000
                  |L52.68|
                          DCD      MotionCompObj

                          AREA ||i.IKS01A2_MOTION_SENSOR_Set_Tap_Shock_Time||, CODE, READONLY, ALIGN=2

                  IKS01A2_MOTION_SENSOR_Set_Tap_Shock_Time PROC
;;;1226    */
;;;1227   int32_t IKS01A2_MOTION_SENSOR_Set_Tap_Shock_Time(uint32_t Instance, uint8_t Time)
000000  b570              PUSH     {r4-r6,lr}
;;;1228   {
000002  4605              MOV      r5,r0
000004  460e              MOV      r6,r1
;;;1229     int32_t ret;
;;;1230   
;;;1231     switch (Instance)
000006  b125              CBZ      r5,|L53.18|
000008  2d01              CMP      r5,#1
00000a  d00e              BEQ      |L53.42|
00000c  2d02              CMP      r5,#2
00000e  d112              BNE      |L53.54|
000010  e00e              B        |L53.48|
                  |L53.18|
;;;1232     {
;;;1233   #if (USE_IKS01A2_MOTION_SENSOR_LSM6DSL_0 == 1)
;;;1234       case IKS01A2_LSM6DSL_0:
;;;1235         if (LSM6DSL_ACC_Set_Tap_Shock_Time(MotionCompObj[Instance], Time) != BSP_ERROR_NONE)
000012  490c              LDR      r1,|L53.68|
000014  f8510025          LDR      r0,[r1,r5,LSL #2]
000018  4631              MOV      r1,r6
00001a  f7fffffe          BL       LSM6DSL_ACC_Set_Tap_Shock_Time
00001e  b110              CBZ      r0,|L53.38|
;;;1236         {
;;;1237           ret = BSP_ERROR_COMPONENT_FAILURE;
000020  f06f0404          MVN      r4,#4
000024  e000              B        |L53.40|
                  |L53.38|
;;;1238         }
;;;1239         else
;;;1240         {
;;;1241           ret = BSP_ERROR_NONE;
000026  2400              MOVS     r4,#0
                  |L53.40|
;;;1242         }
;;;1243         break;
000028  e008              B        |L53.60|
                  |L53.42|
;;;1244   #endif
;;;1245   
;;;1246   #if (USE_IKS01A2_MOTION_SENSOR_LSM303AGR_ACC_0 == 1)
;;;1247       case IKS01A2_LSM303AGR_ACC_0:
;;;1248         ret = BSP_ERROR_COMPONENT_FAILURE;
00002a  f06f0404          MVN      r4,#4
;;;1249         break;
00002e  e005              B        |L53.60|
                  |L53.48|
;;;1250   #endif
;;;1251   
;;;1252   #if (USE_IKS01A2_MOTION_SENSOR_LSM303AGR_MAG_0 == 1)
;;;1253       case IKS01A2_LSM303AGR_MAG_0:
;;;1254         ret = BSP_ERROR_COMPONENT_FAILURE;
000030  f06f0404          MVN      r4,#4
;;;1255         break;
000034  e002              B        |L53.60|
                  |L53.54|
;;;1256   #endif
;;;1257   
;;;1258   #if (USE_IKS01A2_MOTION_SENSOR_ISM330DLC_0 == 1)
;;;1259       case IKS01A2_ISM330DLC_0:
;;;1260         if (ISM330DLC_ACC_Set_Tap_Shock_Time(MotionCompObj[Instance], Time) != BSP_ERROR_NONE)
;;;1261         {
;;;1262           ret = BSP_ERROR_COMPONENT_FAILURE;
;;;1263         }
;;;1264         else
;;;1265         {
;;;1266           ret = BSP_ERROR_NONE;
;;;1267         }
;;;1268         break;
;;;1269   #endif
;;;1270   
;;;1271       default:
;;;1272         ret = BSP_ERROR_WRONG_PARAM;
000036  f06f0401          MVN      r4,#1
;;;1273         break;
00003a  bf00              NOP      
                  |L53.60|
00003c  bf00              NOP                            ;1243
;;;1274     }
;;;1275   
;;;1276     return ret;
00003e  4620              MOV      r0,r4
;;;1277   }
000040  bd70              POP      {r4-r6,pc}
;;;1278   
                          ENDP

000042  0000              DCW      0x0000
                  |L53.68|
                          DCD      MotionCompObj

                          AREA ||i.IKS01A2_MOTION_SENSOR_Set_Tap_Threshold||, CODE, READONLY, ALIGN=2

                  IKS01A2_MOTION_SENSOR_Set_Tap_Threshold PROC
;;;1168    */
;;;1169   int32_t IKS01A2_MOTION_SENSOR_Set_Tap_Threshold(uint32_t Instance, uint8_t Threshold)
000000  b570              PUSH     {r4-r6,lr}
;;;1170   {
000002  4605              MOV      r5,r0
000004  460e              MOV      r6,r1
;;;1171     int32_t ret;
;;;1172   
;;;1173     switch (Instance)
000006  b125              CBZ      r5,|L54.18|
000008  2d01              CMP      r5,#1
00000a  d00e              BEQ      |L54.42|
00000c  2d02              CMP      r5,#2
00000e  d112              BNE      |L54.54|
000010  e00e              B        |L54.48|
                  |L54.18|
;;;1174     {
;;;1175   #if (USE_IKS01A2_MOTION_SENSOR_LSM6DSL_0 == 1)
;;;1176       case IKS01A2_LSM6DSL_0:
;;;1177         if (LSM6DSL_ACC_Set_Tap_Threshold(MotionCompObj[Instance], Threshold) != BSP_ERROR_NONE)
000012  490c              LDR      r1,|L54.68|
000014  f8510025          LDR      r0,[r1,r5,LSL #2]
000018  4631              MOV      r1,r6
00001a  f7fffffe          BL       LSM6DSL_ACC_Set_Tap_Threshold
00001e  b110              CBZ      r0,|L54.38|
;;;1178         {
;;;1179           ret = BSP_ERROR_COMPONENT_FAILURE;
000020  f06f0404          MVN      r4,#4
000024  e000              B        |L54.40|
                  |L54.38|
;;;1180         }
;;;1181         else
;;;1182         {
;;;1183           ret = BSP_ERROR_NONE;
000026  2400              MOVS     r4,#0
                  |L54.40|
;;;1184         }
;;;1185         break;
000028  e008              B        |L54.60|
                  |L54.42|
;;;1186   #endif
;;;1187   
;;;1188   #if (USE_IKS01A2_MOTION_SENSOR_LSM303AGR_ACC_0 == 1)
;;;1189       case IKS01A2_LSM303AGR_ACC_0:
;;;1190         ret = BSP_ERROR_COMPONENT_FAILURE;
00002a  f06f0404          MVN      r4,#4
;;;1191         break;
00002e  e005              B        |L54.60|
                  |L54.48|
;;;1192   #endif
;;;1193   
;;;1194   #if (USE_IKS01A2_MOTION_SENSOR_LSM303AGR_MAG_0 == 1)
;;;1195       case IKS01A2_LSM303AGR_MAG_0:
;;;1196         ret = BSP_ERROR_COMPONENT_FAILURE;
000030  f06f0404          MVN      r4,#4
;;;1197         break;
000034  e002              B        |L54.60|
                  |L54.54|
;;;1198   #endif
;;;1199   
;;;1200   #if (USE_IKS01A2_MOTION_SENSOR_ISM330DLC_0 == 1)
;;;1201       case IKS01A2_ISM330DLC_0:
;;;1202         if (ISM330DLC_ACC_Set_Tap_Threshold(MotionCompObj[Instance], Threshold) != BSP_ERROR_NONE)
;;;1203         {
;;;1204           ret = BSP_ERROR_COMPONENT_FAILURE;
;;;1205         }
;;;1206         else
;;;1207         {
;;;1208           ret = BSP_ERROR_NONE;
;;;1209         }
;;;1210         break;
;;;1211   #endif
;;;1212   
;;;1213       default:
;;;1214         ret = BSP_ERROR_WRONG_PARAM;
000036  f06f0401          MVN      r4,#1
;;;1215         break;
00003a  bf00              NOP      
                  |L54.60|
00003c  bf00              NOP                            ;1185
;;;1216     }
;;;1217   
;;;1218     return ret;
00003e  4620              MOV      r0,r4
;;;1219   }
000040  bd70              POP      {r4-r6,pc}
;;;1220   
                          ENDP

000042  0000              DCW      0x0000
                  |L54.68|
                          DCD      MotionCompObj

                          AREA ||i.IKS01A2_MOTION_SENSOR_Set_Wake_Up_Duration||, CODE, READONLY, ALIGN=2

                  IKS01A2_MOTION_SENSOR_Set_Wake_Up_Duration PROC
;;;1690    */
;;;1691   int32_t IKS01A2_MOTION_SENSOR_Set_Wake_Up_Duration(uint32_t Instance, uint8_t Duration)
000000  b570              PUSH     {r4-r6,lr}
;;;1692   {
000002  4605              MOV      r5,r0
000004  460e              MOV      r6,r1
;;;1693     int32_t ret;
;;;1694   
;;;1695     switch (Instance)
000006  b125              CBZ      r5,|L55.18|
000008  2d01              CMP      r5,#1
00000a  d00e              BEQ      |L55.42|
00000c  2d02              CMP      r5,#2
00000e  d112              BNE      |L55.54|
000010  e00e              B        |L55.48|
                  |L55.18|
;;;1696     {
;;;1697   #if (USE_IKS01A2_MOTION_SENSOR_LSM6DSL_0 == 1)
;;;1698       case IKS01A2_LSM6DSL_0:
;;;1699         if (LSM6DSL_ACC_Set_Wake_Up_Duration(MotionCompObj[Instance], Duration) != BSP_ERROR_NONE)
000012  490c              LDR      r1,|L55.68|
000014  f8510025          LDR      r0,[r1,r5,LSL #2]
000018  4631              MOV      r1,r6
00001a  f7fffffe          BL       LSM6DSL_ACC_Set_Wake_Up_Duration
00001e  b110              CBZ      r0,|L55.38|
;;;1700         {
;;;1701           ret = BSP_ERROR_COMPONENT_FAILURE;
000020  f06f0404          MVN      r4,#4
000024  e000              B        |L55.40|
                  |L55.38|
;;;1702         }
;;;1703         else
;;;1704         {
;;;1705           ret = BSP_ERROR_NONE;
000026  2400              MOVS     r4,#0
                  |L55.40|
;;;1706         }
;;;1707         break;
000028  e008              B        |L55.60|
                  |L55.42|
;;;1708   #endif
;;;1709   
;;;1710   #if (USE_IKS01A2_MOTION_SENSOR_LSM303AGR_ACC_0 == 1)
;;;1711       case IKS01A2_LSM303AGR_ACC_0:
;;;1712         ret = BSP_ERROR_COMPONENT_FAILURE;
00002a  f06f0404          MVN      r4,#4
;;;1713         break;
00002e  e005              B        |L55.60|
                  |L55.48|
;;;1714   #endif
;;;1715   
;;;1716   #if (USE_IKS01A2_MOTION_SENSOR_LSM303AGR_MAG_0 == 1)
;;;1717       case IKS01A2_LSM303AGR_MAG_0:
;;;1718         ret = BSP_ERROR_COMPONENT_FAILURE;
000030  f06f0404          MVN      r4,#4
;;;1719         break;
000034  e002              B        |L55.60|
                  |L55.54|
;;;1720   #endif
;;;1721   
;;;1722   #if (USE_IKS01A2_MOTION_SENSOR_ISM330DLC_0 == 1)
;;;1723       case IKS01A2_ISM330DLC_0:
;;;1724         if (ISM330DLC_ACC_Set_Wake_Up_Duration(MotionCompObj[Instance], Duration) != BSP_ERROR_NONE)
;;;1725         {
;;;1726           ret = BSP_ERROR_COMPONENT_FAILURE;
;;;1727         }
;;;1728         else
;;;1729         {
;;;1730           ret = BSP_ERROR_NONE;
;;;1731         }
;;;1732         break;
;;;1733   #endif
;;;1734   
;;;1735       default:
;;;1736         ret = BSP_ERROR_WRONG_PARAM;
000036  f06f0401          MVN      r4,#1
;;;1737         break;
00003a  bf00              NOP      
                  |L55.60|
00003c  bf00              NOP                            ;1707
;;;1738     }
;;;1739   
;;;1740     return ret;
00003e  4620              MOV      r0,r4
;;;1741   }
000040  bd70              POP      {r4-r6,pc}
;;;1742   
                          ENDP

000042  0000              DCW      0x0000
                  |L55.68|
                          DCD      MotionCompObj

                          AREA ||i.IKS01A2_MOTION_SENSOR_Set_Wake_Up_Threshold||, CODE, READONLY, ALIGN=2

                  IKS01A2_MOTION_SENSOR_Set_Wake_Up_Threshold PROC
;;;1632    */
;;;1633   int32_t IKS01A2_MOTION_SENSOR_Set_Wake_Up_Threshold(uint32_t Instance, uint8_t Threshold)
000000  b570              PUSH     {r4-r6,lr}
;;;1634   {
000002  4605              MOV      r5,r0
000004  460e              MOV      r6,r1
;;;1635     int32_t ret;
;;;1636   
;;;1637     switch (Instance)
000006  b125              CBZ      r5,|L56.18|
000008  2d01              CMP      r5,#1
00000a  d00e              BEQ      |L56.42|
00000c  2d02              CMP      r5,#2
00000e  d112              BNE      |L56.54|
000010  e00e              B        |L56.48|
                  |L56.18|
;;;1638     {
;;;1639   #if (USE_IKS01A2_MOTION_SENSOR_LSM6DSL_0 == 1)
;;;1640       case IKS01A2_LSM6DSL_0:
;;;1641         if (LSM6DSL_ACC_Set_Wake_Up_Threshold(MotionCompObj[Instance], Threshold) != BSP_ERROR_NONE)
000012  490c              LDR      r1,|L56.68|
000014  f8510025          LDR      r0,[r1,r5,LSL #2]
000018  4631              MOV      r1,r6
00001a  f7fffffe          BL       LSM6DSL_ACC_Set_Wake_Up_Threshold
00001e  b110              CBZ      r0,|L56.38|
;;;1642         {
;;;1643           ret = BSP_ERROR_COMPONENT_FAILURE;
000020  f06f0404          MVN      r4,#4
000024  e000              B        |L56.40|
                  |L56.38|
;;;1644         }
;;;1645         else
;;;1646         {
;;;1647           ret = BSP_ERROR_NONE;
000026  2400              MOVS     r4,#0
                  |L56.40|
;;;1648         }
;;;1649         break;
000028  e008              B        |L56.60|
                  |L56.42|
;;;1650   #endif
;;;1651   
;;;1652   #if (USE_IKS01A2_MOTION_SENSOR_LSM303AGR_ACC_0 == 1)
;;;1653       case IKS01A2_LSM303AGR_ACC_0:
;;;1654         ret = BSP_ERROR_COMPONENT_FAILURE;
00002a  f06f0404          MVN      r4,#4
;;;1655         break;
00002e  e005              B        |L56.60|
                  |L56.48|
;;;1656   #endif
;;;1657   
;;;1658   #if (USE_IKS01A2_MOTION_SENSOR_LSM303AGR_MAG_0 == 1)
;;;1659       case IKS01A2_LSM303AGR_MAG_0:
;;;1660         ret = BSP_ERROR_COMPONENT_FAILURE;
000030  f06f0404          MVN      r4,#4
;;;1661         break;
000034  e002              B        |L56.60|
                  |L56.54|
;;;1662   #endif
;;;1663   
;;;1664   #if (USE_IKS01A2_MOTION_SENSOR_ISM330DLC_0 == 1)
;;;1665       case IKS01A2_ISM330DLC_0:
;;;1666         if (ISM330DLC_ACC_Set_Wake_Up_Threshold(MotionCompObj[Instance], Threshold) != BSP_ERROR_NONE)
;;;1667         {
;;;1668           ret = BSP_ERROR_COMPONENT_FAILURE;
;;;1669         }
;;;1670         else
;;;1671         {
;;;1672           ret = BSP_ERROR_NONE;
;;;1673         }
;;;1674         break;
;;;1675   #endif
;;;1676   
;;;1677       default:
;;;1678         ret = BSP_ERROR_WRONG_PARAM;
000036  f06f0401          MVN      r4,#1
;;;1679         break;
00003a  bf00              NOP      
                  |L56.60|
00003c  bf00              NOP                            ;1649
;;;1680     }
;;;1681   
;;;1682     return ret;
00003e  4620              MOV      r0,r4
;;;1683   }
000040  bd70              POP      {r4-r6,pc}
;;;1684   
                          ENDP

000042  0000              DCW      0x0000
                  |L56.68|
                          DCD      MotionCompObj

                          AREA ||i.IKS01A2_MOTION_SENSOR_Write_Register||, CODE, READONLY, ALIGN=2

                  IKS01A2_MOTION_SENSOR_Write_Register PROC
;;;2898    */
;;;2899   int32_t IKS01A2_MOTION_SENSOR_Write_Register(uint32_t Instance, uint8_t Reg, uint8_t Data)
000000  e92d41f0          PUSH     {r4-r8,lr}
;;;2900   {
000004  4605              MOV      r5,r0
000006  460e              MOV      r6,r1
000008  4617              MOV      r7,r2
;;;2901     int32_t ret;
;;;2902   
;;;2903     switch (Instance)
00000a  b125              CBZ      r5,|L57.22|
00000c  2d01              CMP      r5,#1
00000e  d00f              BEQ      |L57.48|
000010  2d02              CMP      r5,#2
000012  d127              BNE      |L57.100|
000014  e019              B        |L57.74|
                  |L57.22|
;;;2904     {
;;;2905   #if (USE_IKS01A2_MOTION_SENSOR_LSM6DSL_0 == 1)
;;;2906       case IKS01A2_LSM6DSL_0:
;;;2907         if (LSM6DSL_Write_Reg(MotionCompObj[Instance], Reg, Data) != BSP_ERROR_NONE)
000016  4917              LDR      r1,|L57.116|
000018  f8510025          LDR      r0,[r1,r5,LSL #2]
00001c  463a              MOV      r2,r7
00001e  4631              MOV      r1,r6
000020  f7fffffe          BL       LSM6DSL_Write_Reg
000024  b110              CBZ      r0,|L57.44|
;;;2908         {
;;;2909           ret = BSP_ERROR_COMPONENT_FAILURE;
000026  f06f0404          MVN      r4,#4
00002a  e000              B        |L57.46|
                  |L57.44|
;;;2910         }
;;;2911         else
;;;2912         {
;;;2913           ret = BSP_ERROR_NONE;
00002c  2400              MOVS     r4,#0
                  |L57.46|
;;;2914         }
;;;2915         break;
00002e  e01c              B        |L57.106|
                  |L57.48|
;;;2916   #endif
;;;2917   
;;;2918   #if (USE_IKS01A2_MOTION_SENSOR_LSM303AGR_ACC_0 == 1)
;;;2919       case IKS01A2_LSM303AGR_ACC_0:
;;;2920         if (LSM303AGR_ACC_Write_Reg(MotionCompObj[Instance], Reg, Data) != BSP_ERROR_NONE)
000030  4910              LDR      r1,|L57.116|
000032  f8510025          LDR      r0,[r1,r5,LSL #2]
000036  463a              MOV      r2,r7
000038  4631              MOV      r1,r6
00003a  f7fffffe          BL       LSM303AGR_ACC_Write_Reg
00003e  b110              CBZ      r0,|L57.70|
;;;2921         {
;;;2922           ret = BSP_ERROR_COMPONENT_FAILURE;
000040  f06f0404          MVN      r4,#4
000044  e000              B        |L57.72|
                  |L57.70|
;;;2923         }
;;;2924         else
;;;2925         {
;;;2926           ret = BSP_ERROR_NONE;
000046  2400              MOVS     r4,#0
                  |L57.72|
;;;2927         }
;;;2928         break;
000048  e00f              B        |L57.106|
                  |L57.74|
;;;2929   #endif
;;;2930   
;;;2931   #if (USE_IKS01A2_MOTION_SENSOR_LSM303AGR_MAG_0 == 1)
;;;2932       case IKS01A2_LSM303AGR_MAG_0:
;;;2933         if (LSM303AGR_MAG_Write_Reg(MotionCompObj[Instance], Reg, Data) != BSP_ERROR_NONE)
00004a  490a              LDR      r1,|L57.116|
00004c  f8510025          LDR      r0,[r1,r5,LSL #2]
000050  463a              MOV      r2,r7
000052  4631              MOV      r1,r6
000054  f7fffffe          BL       LSM303AGR_MAG_Write_Reg
000058  b110              CBZ      r0,|L57.96|
;;;2934         {
;;;2935           ret = BSP_ERROR_COMPONENT_FAILURE;
00005a  f06f0404          MVN      r4,#4
00005e  e000              B        |L57.98|
                  |L57.96|
;;;2936         }
;;;2937         else
;;;2938         {
;;;2939           ret = BSP_ERROR_NONE;
000060  2400              MOVS     r4,#0
                  |L57.98|
;;;2940         }
;;;2941         break;
000062  e002              B        |L57.106|
                  |L57.100|
;;;2942   #endif
;;;2943   
;;;2944   #if (USE_IKS01A2_MOTION_SENSOR_ASM330LHH_0 == 1)
;;;2945       case IKS01A2_ASM330LHH_0:
;;;2946         if (ASM330LHH_Write_Reg(MotionCompObj[Instance], Reg, Data) != BSP_ERROR_NONE)
;;;2947         {
;;;2948           ret = BSP_ERROR_COMPONENT_FAILURE;
;;;2949         }
;;;2950         else
;;;2951         {
;;;2952           ret = BSP_ERROR_NONE;
;;;2953         }
;;;2954         break;
;;;2955   #endif
;;;2956   
;;;2957   #if (USE_IKS01A2_MOTION_SENSOR_IIS2DLPC_0 == 1)
;;;2958       case IKS01A2_IIS2DLPC_0:
;;;2959         if (IIS2DLPC_Write_Reg(MotionCompObj[Instance], Reg, Data) != BSP_ERROR_NONE)
;;;2960         {
;;;2961           ret = BSP_ERROR_COMPONENT_FAILURE;
;;;2962         }
;;;2963         else
;;;2964         {
;;;2965           ret = BSP_ERROR_NONE;
;;;2966         }
;;;2967         break;
;;;2968   #endif
;;;2969   
;;;2970   #if (USE_IKS01A2_MOTION_SENSOR_IIS2MDC_0 == 1)
;;;2971       case IKS01A2_IIS2MDC_0:
;;;2972         if (IIS2MDC_Write_Reg(MotionCompObj[Instance], Reg, Data) != BSP_ERROR_NONE)
;;;2973         {
;;;2974           ret = BSP_ERROR_COMPONENT_FAILURE;
;;;2975         }
;;;2976         else
;;;2977         {
;;;2978           ret = BSP_ERROR_NONE;
;;;2979         }
;;;2980         break;
;;;2981   #endif
;;;2982   
;;;2983   #if (USE_IKS01A2_MOTION_SENSOR_ISM303DAC_ACC_0 == 1)
;;;2984       case IKS01A2_ISM303DAC_ACC_0:
;;;2985         if (ISM303DAC_ACC_Write_Reg(MotionCompObj[Instance], Reg, Data) != BSP_ERROR_NONE)
;;;2986         {
;;;2987           ret = BSP_ERROR_COMPONENT_FAILURE;
;;;2988         }
;;;2989         else
;;;2990         {
;;;2991           ret = BSP_ERROR_NONE;
;;;2992         }
;;;2993         break;
;;;2994   #endif
;;;2995   
;;;2996   #if (USE_IKS01A2_MOTION_SENSOR_ISM303DAC_MAG_0 == 1)
;;;2997       case IKS01A2_ISM303DAC_MAG_0:
;;;2998         if (ISM303DAC_MAG_Write_Reg(MotionCompObj[Instance], Reg, Data) != BSP_ERROR_NONE)
;;;2999         {
;;;3000           ret = BSP_ERROR_COMPONENT_FAILURE;
;;;3001         }
;;;3002         else
;;;3003         {
;;;3004           ret = BSP_ERROR_NONE;
;;;3005         }
;;;3006         break;
;;;3007   #endif
;;;3008   
;;;3009   #if (USE_IKS01A2_MOTION_SENSOR_ISM330DLC_0 == 1)
;;;3010       case IKS01A2_ISM330DLC_0:
;;;3011         if (ISM330DLC_Write_Reg(MotionCompObj[Instance], Reg, Data) != BSP_ERROR_NONE)
;;;3012         {
;;;3013           ret = BSP_ERROR_COMPONENT_FAILURE;
;;;3014         }
;;;3015         else
;;;3016         {
;;;3017           ret = BSP_ERROR_NONE;
;;;3018         }
;;;3019         break;
;;;3020   #endif
;;;3021   
;;;3022   #if (USE_IKS01A2_MOTION_SENSOR_LIS2DH12_0 == 1)
;;;3023       case IKS01A2_LIS2DH12_0:
;;;3024         if (LIS2DH12_Write_Reg(MotionCompObj[Instance], Reg, Data) != BSP_ERROR_NONE)
;;;3025         {
;;;3026           ret = BSP_ERROR_COMPONENT_FAILURE;
;;;3027         }
;;;3028         else
;;;3029         {
;;;3030           ret = BSP_ERROR_NONE;
;;;3031         }
;;;3032         break;
;;;3033   #endif
;;;3034   
;;;3035   #if (USE_IKS01A2_MOTION_SENSOR_LIS2DW12_0 == 1)
;;;3036       case IKS01A2_LIS2DW12_0:
;;;3037         if (LIS2DW12_Write_Reg(MotionCompObj[Instance], Reg, Data) != BSP_ERROR_NONE)
;;;3038         {
;;;3039           ret = BSP_ERROR_COMPONENT_FAILURE;
;;;3040         }
;;;3041         else
;;;3042         {
;;;3043           ret = BSP_ERROR_NONE;
;;;3044         }
;;;3045         break;
;;;3046   #endif
;;;3047   
;;;3048   #if (USE_IKS01A2_MOTION_SENSOR_LIS2MDL_0 == 1)
;;;3049       case IKS01A2_LIS2MDL_0:
;;;3050         if (LIS2MDL_Write_Reg(MotionCompObj[Instance], Reg, Data) != BSP_ERROR_NONE)
;;;3051         {
;;;3052           ret = BSP_ERROR_COMPONENT_FAILURE;
;;;3053         }
;;;3054         else
;;;3055         {
;;;3056           ret = BSP_ERROR_NONE;
;;;3057         }
;;;3058         break;
;;;3059   #endif
;;;3060   
;;;3061   #if (USE_IKS01A2_MOTION_SENSOR_LSM6DSO_0 == 1)
;;;3062       case IKS01A2_LSM6DSO_0:
;;;3063         if (LSM6DSO_Write_Reg(MotionCompObj[Instance], Reg, Data) != BSP_ERROR_NONE)
;;;3064         {
;;;3065           ret = BSP_ERROR_COMPONENT_FAILURE;
;;;3066         }
;;;3067         else
;;;3068         {
;;;3069           ret = BSP_ERROR_NONE;
;;;3070         }
;;;3071         break;
;;;3072   #endif
;;;3073   
;;;3074   #if (USE_IKS01A2_MOTION_SENSOR_LSM6DSOX_0 == 1)
;;;3075       case IKS01A2_LSM6DSOX_0:
;;;3076         if (LSM6DSOX_Write_Reg(MotionCompObj[Instance], Reg, Data) != BSP_ERROR_NONE)
;;;3077         {
;;;3078           ret = BSP_ERROR_COMPONENT_FAILURE;
;;;3079         }
;;;3080         else
;;;3081         {
;;;3082           ret = BSP_ERROR_NONE;
;;;3083         }
;;;3084         break;
;;;3085   #endif
;;;3086   
;;;3087       default:
;;;3088         ret = BSP_ERROR_WRONG_PARAM;
000064  f06f0401          MVN      r4,#1
;;;3089         break;
000068  bf00              NOP      
                  |L57.106|
00006a  bf00              NOP                            ;2915
;;;3090     }
;;;3091   
;;;3092     return ret;
00006c  4620              MOV      r0,r4
;;;3093   }
00006e  e8bd81f0          POP      {r4-r8,pc}
;;;3094   
                          ENDP

000072  0000              DCW      0x0000
                  |L57.116|
                          DCD      MotionCompObj

;*** Start embedded assembler ***

#line 1 "..\\..\\..\\..\\..\\..\\Drivers\\BSP\\IKS01A2\\iks01a2_motion_sensors_ex.c"
	AREA ||.rev16_text||, CODE
	THUMB
	EXPORT |__asm___27_iks01a2_motion_sensors_ex_c_41da7f8b____REV16|
#line 388 "..\\..\\..\\..\\..\\..\\Drivers\\CMSIS\\Include\\cmsis_armcc.h"
|__asm___27_iks01a2_motion_sensors_ex_c_41da7f8b____REV16| PROC
#line 389

 rev16 r0, r0
 bx lr
	ENDP
	AREA ||.revsh_text||, CODE
	THUMB
	EXPORT |__asm___27_iks01a2_motion_sensors_ex_c_41da7f8b____REVSH|
#line 402
|__asm___27_iks01a2_motion_sensors_ex_c_41da7f8b____REVSH| PROC
#line 403

 revsh r0, r0
 bx lr
	ENDP
	AREA ||.rrx_text||, CODE
	THUMB
	EXPORT |__asm___27_iks01a2_motion_sensors_ex_c_41da7f8b____RRX|
#line 587
|__asm___27_iks01a2_motion_sensors_ex_c_41da7f8b____RRX| PROC
#line 588

 rrx r0, r0
 bx lr
	ENDP

;*** End   embedded assembler ***
